libQt6Quick3D.so.6:NonQt
libQt6Quick3D.so.6:Qt_6
libQt6Quick3D.so.6:Qt_6_PRIVATE_API
libQt6Quick3D.so.6:_Z24q_quaternionInterpolatorRK11QQuaternionS1_d@@Qt_6
libQt6Quick3D.so.6:_Z28qml_register_types_QtQuick3Dv@@Qt_6
libQt6Quick3D.so.6:_ZN11QQuick3DFog10setDensityEf@@Qt_6_PRIVATE_API
libQt6Quick3D.so.6:_ZN11QQuick3DFog10setEnabledEb@@Qt_6_PRIVATE_API
libQt6Quick3D.so.6:_ZN11QQuick3DFog11qt_metacallEN11QMetaObject4CallEiPPv@@Qt_6_PRIVATE_API
libQt6Quick3D.so.6:_ZN11QQuick3DFog11qt_metacastEPKc@@Qt_6_PRIVATE_API
libQt6Quick3D.so.6:_ZN11QQuick3DFog11setDepthFarEf@@Qt_6_PRIVATE_API
libQt6Quick3D.so.6:_ZN11QQuick3DFog12colorChangedEv@@Qt_6_PRIVATE_API
libQt6Quick3D.so.6:_ZN11QQuick3DFog12setDepthNearEf@@Qt_6_PRIVATE_API
libQt6Quick3D.so.6:_ZN11QQuick3DFog13setDepthCurveEf@@Qt_6_PRIVATE_API
libQt6Quick3D.so.6:_ZN11QQuick3DFog14densityChangedEv@@Qt_6_PRIVATE_API
libQt6Quick3D.so.6:_ZN11QQuick3DFog14enabledChangedEv@@Qt_6_PRIVATE_API
libQt6Quick3D.so.6:_ZN11QQuick3DFog14setHeightCurveEf@@Qt_6_PRIVATE_API
libQt6Quick3D.so.6:_ZN11QQuick3DFog15depthFarChangedEv@@Qt_6_PRIVATE_API
libQt6Quick3D.so.6:_ZN11QQuick3DFog15setDepthEnabledEb@@Qt_6_PRIVATE_API
libQt6Quick3D.so.6:_ZN11QQuick3DFog15setMostIntenseYEf@@Qt_6_PRIVATE_API
libQt6Quick3D.so.6:_ZN11QQuick3DFog16depthNearChangedEv@@Qt_6_PRIVATE_API
libQt6Quick3D.so.6:_ZN11QQuick3DFog16setHeightEnabledEb@@Qt_6_PRIVATE_API
libQt6Quick3D.so.6:_ZN11QQuick3DFog16setLeastIntenseYEf@@Qt_6_PRIVATE_API
libQt6Quick3D.so.6:_ZN11QQuick3DFog16setTransmitCurveEf@@Qt_6_PRIVATE_API
libQt6Quick3D.so.6:_ZN11QQuick3DFog17depthCurveChangedEv@@Qt_6_PRIVATE_API
libQt6Quick3D.so.6:_ZN11QQuick3DFog18heightCurveChangedEv@@Qt_6_PRIVATE_API
libQt6Quick3D.so.6:_ZN11QQuick3DFog18setTransmitEnabledEb@@Qt_6_PRIVATE_API
libQt6Quick3D.so.6:_ZN11QQuick3DFog19depthEnabledChangedEv@@Qt_6_PRIVATE_API
libQt6Quick3D.so.6:_ZN11QQuick3DFog19mostIntenseYChangedEv@@Qt_6_PRIVATE_API
libQt6Quick3D.so.6:_ZN11QQuick3DFog20heightEnabledChangedEv@@Qt_6_PRIVATE_API
libQt6Quick3D.so.6:_ZN11QQuick3DFog20leastIntenseYChangedEv@@Qt_6_PRIVATE_API
libQt6Quick3D.so.6:_ZN11QQuick3DFog20transmitCurveChangedEv@@Qt_6_PRIVATE_API
libQt6Quick3D.so.6:_ZN11QQuick3DFog22transmitEnabledChangedEv@@Qt_6_PRIVATE_API
libQt6Quick3D.so.6:_ZN11QQuick3DFog7changedEv@@Qt_6_PRIVATE_API
libQt6Quick3D.so.6:_ZN11QQuick3DFog8setColorERK6QColor@@Qt_6_PRIVATE_API
libQt6Quick3D.so.6:_ZN12QQuick3DNode10itemChangeEN14QQuick3DObject10ItemChangeERKNS0_14ItemChangeDataE@@Qt_6_PRIVATE_API
libQt6Quick3D.so.6:_ZN12QQuick3DNode10setVisibleEb@@Qt_6_PRIVATE_API
libQt6Quick3D.so.6:_ZN12QQuick3DNode11qt_metacallEN11QMetaObject4CallEiPPv@@Qt_6_PRIVATE_API
libQt6Quick3D.so.6:_ZN12QQuick3DNode11qt_metacastEPKc@@Qt_6_PRIVATE_API
libQt6Quick3D.so.6:_ZN12QQuick3DNode11setPositionERK9QVector3D@@Qt_6_PRIVATE_API
libQt6Quick3D.so.6:_ZN12QQuick3DNode11setRotationERK11QQuaternion@@Qt_6_PRIVATE_API
libQt6Quick3D.so.6:_ZN12QQuick3DNode12markAllDirtyEv@@Qt_6_PRIVATE_API
libQt6Quick3D.so.6:_ZN12QQuick3DNode12pivotChangedEv@@Qt_6_PRIVATE_API
libQt6Quick3D.so.6:_ZN12QQuick3DNode12rightChangedEv@@Qt_6_PRIVATE_API
libQt6Quick3D.so.6:_ZN12QQuick3DNode12scaleChangedEv@@Qt_6_PRIVATE_API
libQt6Quick3D.so.6:_ZN12QQuick3DNode13connectNotifyERK11QMetaMethod@@Qt_6_PRIVATE_API
libQt6Quick3D.so.6:_ZN12QQuick3DNode14forwardChangedEv@@Qt_6_PRIVATE_API
libQt6Quick3D.so.6:_ZN12QQuick3DNode14setStaticFlagsEi@@Qt_6_PRIVATE_API
libQt6Quick3D.so.6:_ZN12QQuick3DNode14visibleChangedEv@@Qt_6_PRIVATE_API
libQt6Quick3D.so.6:_ZN12QQuick3DNode15positionChangedEv@@Qt_6_PRIVATE_API
libQt6Quick3D.so.6:_ZN12QQuick3DNode15rotationChangedEv@@Qt_6_PRIVATE_API
libQt6Quick3D.so.6:_ZN12QQuick3DNode15setLocalOpacityEf@@Qt_6_PRIVATE_API
libQt6Quick3D.so.6:_ZN12QQuick3DNode16disconnectNotifyERK11QMetaMethod@@Qt_6_PRIVATE_API
libQt6Quick3D.so.6:_ZN12QQuick3DNode16setEulerRotationERK9QVector3D@@Qt_6_PRIVATE_API
libQt6Quick3D.so.6:_ZN12QQuick3DNode17componentCompleteEv@@Qt_6_PRIVATE_API
libQt6Quick3D.so.6:_ZN12QQuick3DNode17sceneScaleChangedEv@@Qt_6_PRIVATE_API
libQt6Quick3D.so.6:_ZN12QQuick3DNode17updateSpatialNodeEP21QSSGRenderGraphObject@@Qt_6_PRIVATE_API
libQt6Quick3D.so.6:_ZN12QQuick3DNode18staticFlagsChangedEv@@Qt_6_PRIVATE_API
libQt6Quick3D.so.6:_ZN12QQuick3DNode19localOpacityChangedEv@@Qt_6_PRIVATE_API
libQt6Quick3D.so.6:_ZN12QQuick3DNode20eulerRotationChangedEv@@Qt_6_PRIVATE_API
libQt6Quick3D.so.6:_ZN12QQuick3DNode20scenePositionChangedEv@@Qt_6_PRIVATE_API
libQt6Quick3D.so.6:_ZN12QQuick3DNode20sceneRotationChangedEv@@Qt_6_PRIVATE_API
libQt6Quick3D.so.6:_ZN12QQuick3DNode21sceneTransformChangedEv@@Qt_6_PRIVATE_API
libQt6Quick3D.so.6:_ZN12QQuick3DNode4setXEf@@Qt_6_PRIVATE_API
libQt6Quick3D.so.6:_ZN12QQuick3DNode4setYEf@@Qt_6_PRIVATE_API
libQt6Quick3D.so.6:_ZN12QQuick3DNode4setZEf@@Qt_6_PRIVATE_API
libQt6Quick3D.so.6:_ZN12QQuick3DNode6rotateEdRK9QVector3DNS_14TransformSpaceE@@Qt_6_PRIVATE_API
libQt6Quick3D.so.6:_ZN12QQuick3DNode8setPivotERK9QVector3D@@Qt_6_PRIVATE_API
libQt6Quick3D.so.6:_ZN12QQuick3DNode8setScaleERK9QVector3D@@Qt_6_PRIVATE_API
libQt6Quick3D.so.6:_ZN12QQuick3DNode8xChangedEv@@Qt_6_PRIVATE_API
libQt6Quick3D.so.6:_ZN12QQuick3DNode8yChangedEv@@Qt_6_PRIVATE_API
libQt6Quick3D.so.6:_ZN12QQuick3DNode8zChangedEv@@Qt_6_PRIVATE_API
libQt6Quick3D.so.6:_ZN12QQuick3DNode9upChangedEv@@Qt_6_PRIVATE_API
libQt6Quick3D.so.6:_ZN12QQuick3DNodeC1EPS_@@Qt_6_PRIVATE_API
libQt6Quick3D.so.6:_ZN12QQuick3DNodeC1ER19QQuick3DNodePrivatePS_@@Qt_6_PRIVATE_API
libQt6Quick3D.so.6:_ZN12QQuick3DNodeC2EPS_@@Qt_6_PRIVATE_API
libQt6Quick3D.so.6:_ZN12QQuick3DNodeC2ER19QQuick3DNodePrivatePS_@@Qt_6_PRIVATE_API
libQt6Quick3D.so.6:_ZN12QQuick3DNodeD0Ev@@Qt_6_PRIVATE_API
libQt6Quick3D.so.6:_ZN12QQuick3DNodeD1Ev@@Qt_6_PRIVATE_API
libQt6Quick3D.so.6:_ZN12QQuick3DNodeD2Ev@@Qt_6_PRIVATE_API
libQt6Quick3D.so.6:_ZN12QQuick3DSkin10qmlJointAtEP16QQmlListPropertyI12QQuick3DNodeEx@@Qt_6_PRIVATE_API
libQt6Quick3D.so.6:_ZN12QQuick3DSkin11qt_metacallEN11QMetaObject4CallEiPPv@@Qt_6_PRIVATE_API
libQt6Quick3D.so.6:_ZN12QQuick3DSkin11qt_metacastEPKc@@Qt_6_PRIVATE_API
libQt6Quick3D.so.6:_ZN12QQuick3DSkin12markAllDirtyEv@@Qt_6_PRIVATE_API
libQt6Quick3D.so.6:_ZN12QQuick3DSkin14onJointChangedEP12QQuick3DNode@@Qt_6_PRIVATE_API
libQt6Quick3D.so.6:_ZN12QQuick3DSkin14qmlAppendJointEP16QQmlListPropertyI12QQuick3DNodeEPS1_@@Qt_6_PRIVATE_API
libQt6Quick3D.so.6:_ZN12QQuick3DSkin14qmlClearJointsEP16QQmlListPropertyI12QQuick3DNodeE@@Qt_6_PRIVATE_API
libQt6Quick3D.so.6:_ZN12QQuick3DSkin14qmlJointsCountEP16QQmlListPropertyI12QQuick3DNodeE@@Qt_6_PRIVATE_API
libQt6Quick3D.so.6:_ZN12QQuick3DSkin16onJointDestroyedEP7QObject@@Qt_6_PRIVATE_API
libQt6Quick3D.so.6:_ZN12QQuick3DSkin17updateSpatialNodeEP21QSSGRenderGraphObject@@Qt_6_PRIVATE_API
libQt6Quick3D.so.6:_ZN12QQuick3DSkin19setInverseBindPosesERK5QListI10QMatrix4x4E@@Qt_6_PRIVATE_API
libQt6Quick3D.so.6:_ZN12QQuick3DSkin23inverseBindPosesChangedEv@@Qt_6_PRIVATE_API
libQt6Quick3D.so.6:_ZN12QQuick3DSkin6jointsEv@@Qt_6_PRIVATE_API
libQt6Quick3D.so.6:_ZN12QQuick3DSkin9markDirtyEv@@Qt_6_PRIVATE_API
libQt6Quick3D.so.6:_ZN12QQuick3DSkinC1EP14QQuick3DObject@@Qt_6_PRIVATE_API
libQt6Quick3D.so.6:_ZN12QQuick3DSkinC2EP14QQuick3DObject@@Qt_6_PRIVATE_API
libQt6Quick3D.so.6:_ZN12QQuick3DSkinD0Ev@@Qt_6_PRIVATE_API
libQt6Quick3D.so.6:_ZN12QQuick3DSkinD1Ev@@Qt_6_PRIVATE_API
libQt6Quick3D.so.6:_ZN12QQuick3DSkinD2Ev@@Qt_6_PRIVATE_API
libQt6Quick3D.so.6:_ZN13QQuick3DJoint11qt_metacallEN11QMetaObject4CallEiPPv@@Qt_6_PRIVATE_API
libQt6Quick3D.so.6:_ZN13QQuick3DJoint11qt_metacastEPKc@@Qt_6_PRIVATE_API
libQt6Quick3D.so.6:_ZN13QQuick3DJoint12indexChangedEv@@Qt_6_PRIVATE_API
libQt6Quick3D.so.6:_ZN13QQuick3DJoint12markAllDirtyEv@@Qt_6_PRIVATE_API
libQt6Quick3D.so.6:_ZN13QQuick3DJoint15setSkeletonRootEP16QQuick3DSkeleton@@Qt_6_PRIVATE_API
libQt6Quick3D.so.6:_ZN13QQuick3DJoint17updateSpatialNodeEP21QSSGRenderGraphObject@@Qt_6_PRIVATE_API
libQt6Quick3D.so.6:_ZN13QQuick3DJoint19skeletonRootChangedEv@@Qt_6_PRIVATE_API
libQt6Quick3D.so.6:_ZN13QQuick3DJoint8setIndexEi@@Qt_6_PRIVATE_API
libQt6Quick3D.so.6:_ZN13QQuick3DJointC1EP12QQuick3DNode@@Qt_6_PRIVATE_API
libQt6Quick3D.so.6:_ZN13QQuick3DJointC2EP12QQuick3DNode@@Qt_6_PRIVATE_API
libQt6Quick3D.so.6:_ZN13QQuick3DJointD0Ev@@Qt_6_PRIVATE_API
libQt6Quick3D.so.6:_ZN13QQuick3DJointD1Ev@@Qt_6_PRIVATE_API
libQt6Quick3D.so.6:_ZN13QQuick3DJointD2Ev@@Qt_6_PRIVATE_API
libQt6Quick3D.so.6:_ZN13QQuick3DModel10itemChangeEN14QQuick3DObject10ItemChangeERKNS0_14ItemChangeDataE@@Qt_6_PRIVATE_API
libQt6Quick3D.so.6:_ZN13QQuick3DModel11qt_metacallEN11QMetaObject4CallEiPPv@@Qt_6_PRIVATE_API
libQt6Quick3D.so.6:_ZN13QQuick3DModel11qt_metacastEPKc@@Qt_6_PRIVATE_API
libQt6Quick3D.so.6:_ZN13QQuick3DModel11setGeometryEP16QQuick3DGeometry@@Qt_6_PRIVATE_API
libQt6Quick3D.so.6:_ZN13QQuick3DModel11setPickableEb@@Qt_6_PRIVATE_API
libQt6Quick3D.so.6:_ZN13QQuick3DModel11setSkeletonEP16QQuick3DSkeleton@@Qt_6_PRIVATE_API
libQt6Quick3D.so.6:_ZN13QQuick3DModel11skinChangedEv@@Qt_6_PRIVATE_API
libQt6Quick3D.so.6:_ZN13QQuick3DModel12markAllDirtyEv@@Qt_6_PRIVATE_API
libQt6Quick3D.so.6:_ZN13QQuick3DModel12morphTargetsEv@@Qt_6_PRIVATE_API
libQt6Quick3D.so.6:_ZN13QQuick3DModel12setDepthBiasEf@@Qt_6_PRIVATE_API
libQt6Quick3D.so.6:_ZN13QQuick3DModel13boundsChangedEv@@Qt_6_PRIVATE_API
libQt6Quick3D.so.6:_ZN13QQuick3DModel13qmlMaterialAtEP16QQmlListPropertyI16QQuick3DMaterialEx@@Qt_6_PRIVATE_API
libQt6Quick3D.so.6:_ZN13QQuick3DModel13setInstancingEP18QQuick3DInstancing@@Qt_6_PRIVATE_API
libQt6Quick3D.so.6:_ZN13QQuick3DModel13sourceChangedEv@@Qt_6_PRIVATE_API
libQt6Quick3D.so.6:_ZN13QQuick3DModel15geometryChangedEv@@Qt_6_PRIVATE_API
libQt6Quick3D.so.6:_ZN13QQuick3DModel15pickableChangedEv@@Qt_6_PRIVATE_API
libQt6Quick3D.so.6:_ZN13QQuick3DModel15setCastsShadowsEb@@Qt_6_PRIVATE_API
libQt6Quick3D.so.6:_ZN13QQuick3DModel15setInstanceRootEP12QQuick3DNode@@Qt_6_PRIVATE_API
libQt6Quick3D.so.6:_ZN13QQuick3DModel15skeletonChangedEv@@Qt_6_PRIVATE_API
libQt6Quick3D.so.6:_ZN13QQuick3DModel16depthBiasChangedEv@@Qt_6_PRIVATE_API
libQt6Quick3D.so.6:_ZN13QQuick3DModel16qmlMorphTargetAtEP16QQmlListPropertyI19QQuick3DMorphTargetEx@@Qt_6_PRIVATE_API
libQt6Quick3D.so.6:_ZN13QQuick3DModel16setBakedLightmapEP21QQuick3DBakedLightmap@@Qt_6_PRIVATE_API
libQt6Quick3D.so.6:_ZN13QQuick3DModel17instancingChangedEv@@Qt_6_PRIVATE_API
libQt6Quick3D.so.6:_ZN13QQuick3DModel17qmlAppendMaterialEP16QQmlListPropertyI16QQuick3DMaterialEPS1_@@Qt_6_PRIVATE_API
libQt6Quick3D.so.6:_ZN13QQuick3DModel17qmlClearMaterialsEP16QQmlListPropertyI16QQuick3DMaterialE@@Qt_6_PRIVATE_API
libQt6Quick3D.so.6:_ZN13QQuick3DModel17qmlMaterialsCountEP16QQmlListPropertyI16QQuick3DMaterialE@@Qt_6_PRIVATE_API
libQt6Quick3D.so.6:_ZN13QQuick3DModel17updateSpatialNodeEP21QSSGRenderGraphObject@@Qt_6_PRIVATE_API
libQt6Quick3D.so.6:_ZN13QQuick3DModel18setReceivesShadowsEb@@Qt_6_PRIVATE_API
libQt6Quick3D.so.6:_ZN13QQuick3DModel18updateSceneManagerEP20QQuick3DSceneManager@@Qt_6_PRIVATE_API
libQt6Quick3D.so.6:_ZN13QQuick3DModel19castsShadowsChangedEv@@Qt_6_PRIVATE_API
libQt6Quick3D.so.6:_ZN13QQuick3DModel19instanceRootChangedEv@@Qt_6_PRIVATE_API
libQt6Quick3D.so.6:_ZN13QQuick3DModel19morphTargetsChangedEv@@Qt_6_PRIVATE_API
libQt6Quick3D.so.6:_ZN13QQuick3DModel19onMaterialDestroyedEP7QObject@@Qt_6_PRIVATE_API
libQt6Quick3D.so.6:_ZN13QQuick3DModel19setCastsReflectionsEb@@Qt_6_PRIVATE_API
libQt6Quick3D.so.6:_ZN13QQuick3DModel19setInstancingLodMaxEf@@Qt_6_PRIVATE_API
libQt6Quick3D.so.6:_ZN13QQuick3DModel19setInstancingLodMinEf@@Qt_6_PRIVATE_API
libQt6Quick3D.so.6:_ZN13QQuick3DModel19setInverseBindPosesERK5QListI10QMatrix4x4E@@Qt_6_PRIVATE_API
libQt6Quick3D.so.6:_ZN13QQuick3DModel19translateMeshSourceERK4QUrlP7QObject@@Qt_6_PRIVATE_API
libQt6Quick3D.so.6:_ZN13QQuick3DModel20bakedLightmapChangedEv@@Qt_6_PRIVATE_API
libQt6Quick3D.so.6:_ZN13QQuick3DModel20qmlAppendMorphTargetEP16QQmlListPropertyI19QQuick3DMorphTargetEPS1_@@Qt_6_PRIVATE_API
libQt6Quick3D.so.6:_ZN13QQuick3DModel20qmlClearMorphTargetsEP16QQmlListPropertyI19QQuick3DMorphTargetE@@Qt_6_PRIVATE_API
libQt6Quick3D.so.6:_ZN13QQuick3DModel20qmlMorphTargetsCountEP16QQmlListPropertyI19QQuick3DMorphTargetE@@Qt_6_PRIVATE_API
libQt6Quick3D.so.6:_ZN13QQuick3DModel20setLevelOfDetailBiasEf@@Qt_6_PRIVATE_API
libQt6Quick3D.so.6:_ZN13QQuick3DModel22onMorphTargetDestroyedEP7QObject@@Qt_6_PRIVATE_API
libQt6Quick3D.so.6:_ZN13QQuick3DModel22receivesShadowsChangedEv@@Qt_6_PRIVATE_API
libQt6Quick3D.so.6:_ZN13QQuick3DModel22setReceivesReflectionsEb@@Qt_6_PRIVATE_API
libQt6Quick3D.so.6:_ZN13QQuick3DModel22setUsedInBakedLightingEb@@Qt_6_PRIVATE_API
libQt6Quick3D.so.6:_ZN13QQuick3DModel23castsReflectionsChangedEv@@Qt_6_PRIVATE_API
libQt6Quick3D.so.6:_ZN13QQuick3DModel23instancingLodMaxChangedEv@@Qt_6_PRIVATE_API
libQt6Quick3D.so.6:_ZN13QQuick3DModel23instancingLodMinChangedEv@@Qt_6_PRIVATE_API
libQt6Quick3D.so.6:_ZN13QQuick3DModel23inverseBindPosesChangedEv@@Qt_6_PRIVATE_API
libQt6Quick3D.so.6:_ZN13QQuick3DModel24levelOfDetailBiasChangedEv@@Qt_6_PRIVATE_API
libQt6Quick3D.so.6:_ZN13QQuick3DModel25setLightmapBaseResolutionEi@@Qt_6_PRIVATE_API
libQt6Quick3D.so.6:_ZN13QQuick3DModel26receivesReflectionsChangedEv@@Qt_6_PRIVATE_API
libQt6Quick3D.so.6:_ZN13QQuick3DModel26usedInBakedLightingChangedEv@@Qt_6_PRIVATE_API
libQt6Quick3D.so.6:_ZN13QQuick3DModel29lightmapBaseResolutionChangedEv@@Qt_6_PRIVATE_API
libQt6Quick3D.so.6:_ZN13QQuick3DModel7setSkinEP12QQuick3DSkin@@Qt_6_PRIVATE_API
libQt6Quick3D.so.6:_ZN13QQuick3DModel9markDirtyENS_18QSSGModelDirtyTypeE@@Qt_6_PRIVATE_API
libQt6Quick3D.so.6:_ZN13QQuick3DModel9materialsEv@@Qt_6_PRIVATE_API
libQt6Quick3D.so.6:_ZN13QQuick3DModel9setBoundsERK9QVector3DS2_@@Qt_6_PRIVATE_API
libQt6Quick3D.so.6:_ZN13QQuick3DModel9setSourceERK4QUrl@@Qt_6_PRIVATE_API
libQt6Quick3D.so.6:_ZN13QQuick3DModelC1EP12QQuick3DNode@@Qt_6_PRIVATE_API
libQt6Quick3D.so.6:_ZN13QQuick3DModelC2EP12QQuick3DNode@@Qt_6_PRIVATE_API
libQt6Quick3D.so.6:_ZN13QQuick3DModelD0Ev@@Qt_6_PRIVATE_API
libQt6Quick3D.so.6:_ZN13QQuick3DModelD1Ev@@Qt_6_PRIVATE_API
libQt6Quick3D.so.6:_ZN13QQuick3DModelD2Ev@@Qt_6_PRIVATE_API
libQt6Quick3D.so.6:_ZN14QQuick3DCamera11qt_metacallEN11QMetaObject4CallEiPPv@@Qt_6_PRIVATE_API
libQt6Quick3D.so.6:_ZN14QQuick3DCamera11qt_metacastEPKc@@Qt_6_PRIVATE_API
libQt6Quick3D.so.6:_ZN14QQuick3DCamera12updateLookAtEv@@Qt_6_PRIVATE_API
libQt6Quick3D.so.6:_ZN14QQuick3DCamera13mapToViewportERK9QVector3Ddd@@Qt_6_PRIVATE_API
libQt6Quick3D.so.6:_ZN14QQuick3DCamera13setLookAtNodeEP12QQuick3DNode@@Qt_6_PRIVATE_API
libQt6Quick3D.so.6:_ZN14QQuick3DCamera15mapFromViewportERK9QVector3Ddd@@Qt_6_PRIVATE_API
libQt6Quick3D.so.6:_ZN14QQuick3DCamera17lookAtNodeChangedEv@@Qt_6_PRIVATE_API
libQt6Quick3D.so.6:_ZN14QQuick3DCamera17updateSpatialNodeEP21QSSGRenderGraphObject@@Qt_6_PRIVATE_API
libQt6Quick3D.so.6:_ZN14QQuick3DCamera20setLevelOfDetailBiasEf@@Qt_6_PRIVATE_API
libQt6Quick3D.so.6:_ZN14QQuick3DCamera21updateGlobalVariablesERK6QRectF@@Qt_6_PRIVATE_API
libQt6Quick3D.so.6:_ZN14QQuick3DCamera24levelOfDetailBiasChangedEv@@Qt_6_PRIVATE_API
libQt6Quick3D.so.6:_ZN14QQuick3DCamera24setFrustumCullingEnabledEb@@Qt_6_PRIVATE_API
libQt6Quick3D.so.6:_ZN14QQuick3DCamera28frustumCullingEnabledChangedEv@@Qt_6_PRIVATE_API
libQt6Quick3D.so.6:_ZN14QQuick3DCamera6lookAtEP12QQuick3DNode@@Qt_6_PRIVATE_API
libQt6Quick3D.so.6:_ZN14QQuick3DCamera6lookAtERK9QVector3D@@Qt_6_PRIVATE_API
libQt6Quick3D.so.6:_ZN14QQuick3DCameraC1ER19QQuick3DNodePrivateP12QQuick3DNode@@Qt_6_PRIVATE_API
libQt6Quick3D.so.6:_ZN14QQuick3DCameraC2ER19QQuick3DNodePrivateP12QQuick3DNode@@Qt_6_PRIVATE_API
libQt6Quick3D.so.6:_ZN14QQuick3DEffect10itemChangeEN14QQuick3DObject10ItemChangeERKNS0_14ItemChangeDataE@@Qt_6_PRIVATE_API
libQt6Quick3D.so.6:_ZN14QQuick3DEffect11onPassDirtyEv@@Qt_6_PRIVATE_API
libQt6Quick3D.so.6:_ZN14QQuick3DEffect11qt_metacallEN11QMetaObject4CallEiPPv@@Qt_6_PRIVATE_API
libQt6Quick3D.so.6:_ZN14QQuick3DEffect11qt_metacastEPKc@@Qt_6_PRIVATE_API
libQt6Quick3D.so.6:_ZN14QQuick3DEffect12qmlPassClearEP16QQmlListPropertyI29QQuick3DShaderUtilsRenderPassE@@Qt_6_PRIVATE_API
libQt6Quick3D.so.6:_ZN14QQuick3DEffect12qmlPassCountEP16QQmlListPropertyI29QQuick3DShaderUtilsRenderPassE@@Qt_6_PRIVATE_API
libQt6Quick3D.so.6:_ZN14QQuick3DEffect13qmlAppendPassEP16QQmlListPropertyI29QQuick3DShaderUtilsRenderPassEPS1_@@Qt_6_PRIVATE_API
libQt6Quick3D.so.6:_ZN14QQuick3DEffect14onTextureDirtyEv@@Qt_6_PRIVATE_API
libQt6Quick3D.so.6:_ZN14QQuick3DEffect15onPropertyDirtyEv@@Qt_6_PRIVATE_API
libQt6Quick3D.so.6:_ZN14QQuick3DEffect16effectChainDirtyEv@@Qt_6_PRIVATE_API
libQt6Quick3D.so.6:_ZN14QQuick3DEffect17updateSpatialNodeEP21QSSGRenderGraphObject@@Qt_6_PRIVATE_API
libQt6Quick3D.so.6:_ZN14QQuick3DEffect18updateSceneManagerEP20QQuick3DSceneManager@@Qt_6_PRIVATE_API
libQt6Quick3D.so.6:_ZN14QQuick3DEffect20setDynamicTextureMapEP31QQuick3DShaderUtilsTextureInput@@Qt_6_PRIVATE_API
libQt6Quick3D.so.6:_ZN14QQuick3DEffect6passesEv@@Qt_6_PRIVATE_API
libQt6Quick3D.so.6:_ZN14QQuick3DEffect9markDirtyENS_5DirtyE@@Qt_6_PRIVATE_API
libQt6Quick3D.so.6:_ZN14QQuick3DEffect9qmlPassAtEP16QQmlListPropertyI29QQuick3DShaderUtilsRenderPassEx@@Qt_6_PRIVATE_API
libQt6Quick3D.so.6:_ZN14QQuick3DEffectC1EP14QQuick3DObject@@Qt_6_PRIVATE_API
libQt6Quick3D.so.6:_ZN14QQuick3DEffectC2EP14QQuick3DObject@@Qt_6_PRIVATE_API
libQt6Quick3D.so.6:_ZN14QQuick3DLoader11itemChangedEv@@Qt_6_PRIVATE_API
libQt6Quick3D.so.6:_ZN14QQuick3DLoader11qt_metacallEN11QMetaObject4CallEiPPv@@Qt_6_PRIVATE_API
libQt6Quick3D.so.6:_ZN14QQuick3DLoader11qt_metacastEPKc@@Qt_6_PRIVATE_API
libQt6Quick3D.so.6:_ZN14QQuick3DLoader12sourceLoadedEv@@Qt_6_PRIVATE_API
libQt6Quick3D.so.6:_ZN14QQuick3DLoader13activeChangedEv@@Qt_6_PRIVATE_API
libQt6Quick3D.so.6:_ZN14QQuick3DLoader13sourceChangedEv@@Qt_6_PRIVATE_API
libQt6Quick3D.so.6:_ZN14QQuick3DLoader13statusChangedEv@@Qt_6_PRIVATE_API
libQt6Quick3D.so.6:_ZN14QQuick3DLoader14loadFromSourceEv@@Qt_6_PRIVATE_API
libQt6Quick3D.so.6:_ZN14QQuick3DLoader15createComponentEv@@Qt_6_PRIVATE_API
libQt6Quick3D.so.6:_ZN14QQuick3DLoader15progressChangedEv@@Qt_6_PRIVATE_API
libQt6Quick3D.so.6:_ZN14QQuick3DLoader15setAsynchronousEb@@Qt_6_PRIVATE_API
libQt6Quick3D.so.6:_ZN14QQuick3DLoader15setInitialStateEP7QObject@@Qt_6_PRIVATE_API
libQt6Quick3D.so.6:_ZN14QQuick3DLoader16resolveSourceUrlEP14QQmlV4Function@@Qt_6_PRIVATE_API
libQt6Quick3D.so.6:_ZN14QQuick3DLoader17componentCompleteEv@@Qt_6_PRIVATE_API
libQt6Quick3D.so.6:_ZN14QQuick3DLoader18setSourceComponentEP13QQmlComponent@@Qt_6_PRIVATE_API
libQt6Quick3D.so.6:_ZN14QQuick3DLoader19asynchronousChangedEv@@Qt_6_PRIVATE_API
libQt6Quick3D.so.6:_ZN14QQuick3DLoader20resetSourceComponentEv@@Qt_6_PRIVATE_API
libQt6Quick3D.so.6:_ZN14QQuick3DLoader21incubatorStateChangedEN13QQmlIncubator6StatusE@@Qt_6_PRIVATE_API
libQt6Quick3D.so.6:_ZN14QQuick3DLoader22sourceComponentChangedEv@@Qt_6_PRIVATE_API
libQt6Quick3D.so.6:_ZN14QQuick3DLoader23loadFromSourceComponentEv@@Qt_6_PRIVATE_API
libQt6Quick3D.so.6:_ZN14QQuick3DLoader28disposeInitialPropertyValuesEv@@Qt_6_PRIVATE_API
libQt6Quick3D.so.6:_ZN14QQuick3DLoader28extractInitialPropertyValuesEP14QQmlV4FunctionPb@@Qt_6_PRIVATE_API
libQt6Quick3D.so.6:_ZN14QQuick3DLoader4loadEv@@Qt_6_PRIVATE_API
libQt6Quick3D.so.6:_ZN14QQuick3DLoader5clearEv@@Qt_6_PRIVATE_API
libQt6Quick3D.so.6:_ZN14QQuick3DLoader6loadedEv@@Qt_6_PRIVATE_API
libQt6Quick3D.so.6:_ZN14QQuick3DLoader9setActiveEb@@Qt_6_PRIVATE_API
libQt6Quick3D.so.6:_ZN14QQuick3DLoader9setSourceEP14QQmlV4Function@@Qt_6_PRIVATE_API
libQt6Quick3D.so.6:_ZN14QQuick3DLoader9setSourceERK4QUrl@@Qt_6_PRIVATE_API
libQt6Quick3D.so.6:_ZN14QQuick3DLoader9setSourceERK4QUrlb@@Qt_6_PRIVATE_API
libQt6Quick3D.so.6:_ZN14QQuick3DLoaderC1EP12QQuick3DNode@@Qt_6_PRIVATE_API
libQt6Quick3D.so.6:_ZN14QQuick3DLoaderC2EP12QQuick3DNode@@Qt_6_PRIVATE_API
libQt6Quick3D.so.6:_ZN14QQuick3DLoaderD0Ev@@Qt_6_PRIVATE_API
libQt6Quick3D.so.6:_ZN14QQuick3DLoaderD1Ev@@Qt_6_PRIVATE_API
libQt6Quick3D.so.6:_ZN14QQuick3DLoaderD2Ev@@Qt_6_PRIVATE_API
libQt6Quick3D.so.6:_ZN14QQuick3DObject10classBeginEv@@Qt_6
libQt6Quick3D.so.6:_ZN14QQuick3DObject10itemChangeENS_10ItemChangeERKNS_14ItemChangeDataE@@Qt_6
libQt6Quick3D.so.6:_ZN14QQuick3DObject11qt_metacallEN11QMetaObject4CallEiPPv@@Qt_6
libQt6Quick3D.so.6:_ZN14QQuick3DObject11qt_metacastEPKc@@Qt_6
libQt6Quick3D.so.6:_ZN14QQuick3DObject12markAllDirtyEv@@Qt_6
libQt6Quick3D.so.6:_ZN14QQuick3DObject12stateChangedEv@@Qt_6
libQt6Quick3D.so.6:_ZN14QQuick3DObject13parentChangedEv@@Qt_6
libQt6Quick3D.so.6:_ZN14QQuick3DObject13setParentItemEPS_@@Qt_6
libQt6Quick3D.so.6:_ZN14QQuick3DObject15childrenChangedEv@@Qt_6
libQt6Quick3D.so.6:_ZN14QQuick3DObject17componentCompleteEv@@Qt_6
libQt6Quick3D.so.6:_ZN14QQuick3DObject17updateSpatialNodeEP21QSSGRenderGraphObject@@Qt_6
libQt6Quick3D.so.6:_ZN14QQuick3DObject6updateEv@@Qt_6
libQt6Quick3D.so.6:_ZN14QQuick3DObject7preSyncEv@@Qt_6
libQt6Quick3D.so.6:_ZN14QQuick3DObject8setStateERK7QString@@Qt_6
libQt6Quick3D.so.6:_ZN14QQuick3DObjectC1EPS_@@Qt_6
libQt6Quick3D.so.6:_ZN14QQuick3DObjectC1ER21QQuick3DObjectPrivatePS_@@Qt_6_PRIVATE_API
libQt6Quick3D.so.6:_ZN14QQuick3DObjectC2EPS_@@Qt_6
libQt6Quick3D.so.6:_ZN14QQuick3DObjectC2ER21QQuick3DObjectPrivatePS_@@Qt_6_PRIVATE_API
libQt6Quick3D.so.6:_ZN14QQuick3DObjectD0Ev@@Qt_6
libQt6Quick3D.so.6:_ZN14QQuick3DObjectD1Ev@@Qt_6
libQt6Quick3D.so.6:_ZN14QQuick3DObjectD2Ev@@Qt_6
libQt6Quick3D.so.6:_ZN15QQuick3DTexture10itemChangeEN14QQuick3DObject10ItemChangeERKNS0_14ItemChangeDataE@@Qt_6_PRIVATE_API
libQt6Quick3D.so.6:_ZN15QQuick3DTexture10setIndexUVEi@@Qt_6_PRIVATE_API
libQt6Quick3D.so.6:_ZN15QQuick3DTexture11qt_metacallEN11QMetaObject4CallEiPPv@@Qt_6_PRIVATE_API
libQt6Quick3D.so.6:_ZN15QQuick3DTexture11qt_metacastEPKc@@Qt_6_PRIVATE_API
libQt6Quick3D.so.6:_ZN15QQuick3DTexture12flipUChangedEv@@Qt_6_PRIVATE_API
libQt6Quick3D.so.6:_ZN15QQuick3DTexture12flipVChangedEv@@Qt_6_PRIVATE_API
libQt6Quick3D.so.6:_ZN15QQuick3DTexture12markAllDirtyEv@@Qt_6_PRIVATE_API
libQt6Quick3D.so.6:_ZN15QQuick3DTexture12setMagFilterENS_6FilterE@@Qt_6_PRIVATE_API
libQt6Quick3D.so.6:_ZN15QQuick3DTexture12setMinFilterENS_6FilterE@@Qt_6_PRIVATE_API
libQt6Quick3D.so.6:_ZN15QQuick3DTexture12setMipFilterENS_6FilterE@@Qt_6_PRIVATE_API
libQt6Quick3D.so.6:_ZN15QQuick3DTexture12setPositionUEf@@Qt_6_PRIVATE_API
libQt6Quick3D.so.6:_ZN15QQuick3DTexture12setPositionVEf@@Qt_6_PRIVATE_API
libQt6Quick3D.so.6:_ZN15QQuick3DTexture13pivotUChangedEv@@Qt_6_PRIVATE_API
libQt6Quick3D.so.6:_ZN15QQuick3DTexture13pivotVChangedEv@@Qt_6_PRIVATE_API
libQt6Quick3D.so.6:_ZN15QQuick3DTexture13scaleUChangedEv@@Qt_6_PRIVATE_API
libQt6Quick3D.so.6:_ZN15QQuick3DTexture13scaleVChangedEv@@Qt_6_PRIVATE_API
libQt6Quick3D.so.6:_ZN15QQuick3DTexture13setRotationUVEf@@Qt_6_PRIVATE_API
libQt6Quick3D.so.6:_ZN15QQuick3DTexture13setSourceItemEP10QQuickItem@@Qt_6_PRIVATE_API
libQt6Quick3D.so.6:_ZN15QQuick3DTexture13sourceChangedEv@@Qt_6_PRIVATE_API
libQt6Quick3D.so.6:_ZN15QQuick3DTexture14getRenderImageEv@@Qt_6_PRIVATE_API
libQt6Quick3D.so.6:_ZN15QQuick3DTexture14indexUVChangedEv@@Qt_6_PRIVATE_API
libQt6Quick3D.so.6:_ZN15QQuick3DTexture14setDepthTilingENS_10TilingModeE@@Qt_6_PRIVATE_API
libQt6Quick3D.so.6:_ZN15QQuick3DTexture14setMappingModeENS_11MappingModeE@@Qt_6_PRIVATE_API
libQt6Quick3D.so.6:_ZN15QQuick3DTexture14setTextureDataEP19QQuick3DTextureData@@Qt_6_PRIVATE_API
libQt6Quick3D.so.6:_ZN15QQuick3DTexture16magFilterChangedEv@@Qt_6_PRIVATE_API
libQt6Quick3D.so.6:_ZN15QQuick3DTexture16minFilterChangedEv@@Qt_6_PRIVATE_API
libQt6Quick3D.so.6:_ZN15QQuick3DTexture16mipFilterChangedEv@@Qt_6_PRIVATE_API
libQt6Quick3D.so.6:_ZN15QQuick3DTexture16positionUChangedEv@@Qt_6_PRIVATE_API
libQt6Quick3D.so.6:_ZN15QQuick3DTexture16positionVChangedEv@@Qt_6_PRIVATE_API
libQt6Quick3D.so.6:_ZN15QQuick3DTexture17rotationUVChangedEv@@Qt_6_PRIVATE_API
libQt6Quick3D.so.6:_ZN15QQuick3DTexture17setVerticalTilingENS_10TilingModeE@@Qt_6_PRIVATE_API
libQt6Quick3D.so.6:_ZN15QQuick3DTexture17sourceItemChangedEv@@Qt_6_PRIVATE_API
libQt6Quick3D.so.6:_ZN15QQuick3DTexture17updateSpatialNodeEP21QSSGRenderGraphObject@@Qt_6_PRIVATE_API
libQt6Quick3D.so.6:_ZN15QQuick3DTexture18depthTilingChangedEv@@Qt_6_PRIVATE_API
libQt6Quick3D.so.6:_ZN15QQuick3DTexture18mappingModeChangedEv@@Qt_6_PRIVATE_API
libQt6Quick3D.so.6:_ZN15QQuick3DTexture18setAutoOrientationEb@@Qt_6_PRIVATE_API
libQt6Quick3D.so.6:_ZN15QQuick3DTexture18setGenerateMipmapsEb@@Qt_6_PRIVATE_API
libQt6Quick3D.so.6:_ZN15QQuick3DTexture18setTextureProviderEP23QQuick3DRenderExtension@@Qt_6_PRIVATE_API
libQt6Quick3D.so.6:_ZN15QQuick3DTexture18textureDataChangedEv@@Qt_6_PRIVATE_API
libQt6Quick3D.so.6:_ZN15QQuick3DTexture18trySetSourceParentEv@@Qt_6_PRIVATE_API
libQt6Quick3D.so.6:_ZN15QQuick3DTexture19itemGeometryChangedEP10QQuickItem20QQuickGeometryChangeRK6QRectF@@Qt_6_PRIVATE_API
libQt6Quick3D.so.6:_ZN15QQuick3DTexture19setHorizontalTilingENS_10TilingModeE@@Qt_6_PRIVATE_API
libQt6Quick3D.so.6:_ZN15QQuick3DTexture19sourceItemDestroyedEP7QObject@@Qt_6_PRIVATE_API
libQt6Quick3D.so.6:_ZN15QQuick3DTexture21verticalTilingChangedEv@@Qt_6_PRIVATE_API
libQt6Quick3D.so.6:_ZN15QQuick3DTexture22autoOrientationChangedEv@@Qt_6_PRIVATE_API
libQt6Quick3D.so.6:_ZN15QQuick3DTexture22generateMipmapsChangedEv@@Qt_6_PRIVATE_API
libQt6Quick3D.so.6:_ZN15QQuick3DTexture22textureProviderChangedEv@@Qt_6_PRIVATE_API
libQt6Quick3D.so.6:_ZN15QQuick3DTexture23horizontalTilingChangedEv@@Qt_6_PRIVATE_API
libQt6Quick3D.so.6:_ZN15QQuick3DTexture8setFlipUEb@@Qt_6_PRIVATE_API
libQt6Quick3D.so.6:_ZN15QQuick3DTexture8setFlipVEb@@Qt_6_PRIVATE_API
libQt6Quick3D.so.6:_ZN15QQuick3DTexture9markDirtyENS_9DirtyFlagE@@Qt_6_PRIVATE_API
libQt6Quick3D.so.6:_ZN15QQuick3DTexture9setPivotUEf@@Qt_6_PRIVATE_API
libQt6Quick3D.so.6:_ZN15QQuick3DTexture9setPivotVEf@@Qt_6_PRIVATE_API
libQt6Quick3D.so.6:_ZN15QQuick3DTexture9setScaleUEf@@Qt_6_PRIVATE_API
libQt6Quick3D.so.6:_ZN15QQuick3DTexture9setScaleVEf@@Qt_6_PRIVATE_API
libQt6Quick3D.so.6:_ZN15QQuick3DTexture9setSourceERK4QUrl@@Qt_6_PRIVATE_API
libQt6Quick3D.so.6:_ZN15QQuick3DTextureC1EP14QQuick3DObject@@Qt_6_PRIVATE_API
libQt6Quick3D.so.6:_ZN15QQuick3DTextureC1ER21QQuick3DObjectPrivateP14QQuick3DObject@@Qt_6_PRIVATE_API
libQt6Quick3D.so.6:_ZN15QQuick3DTextureC2EP14QQuick3DObject@@Qt_6_PRIVATE_API
libQt6Quick3D.so.6:_ZN15QQuick3DTextureC2ER21QQuick3DObjectPrivateP14QQuick3DObject@@Qt_6_PRIVATE_API
libQt6Quick3D.so.6:_ZN15QQuick3DTextureD0Ev@@Qt_6_PRIVATE_API
libQt6Quick3D.so.6:_ZN15QQuick3DTextureD1Ev@@Qt_6_PRIVATE_API
libQt6Quick3D.so.6:_ZN15QQuick3DTextureD2Ev@@Qt_6_PRIVATE_API
libQt6Quick3D.so.6:_ZN15QSSGShaderUtils11uniformTypeE9QMetaType@@Qt_6
libQt6Quick3D.so.6:_ZN15QSSGShaderUtils13resolveShaderERK4QUrlPK11QQmlContextR10QByteArray@@Qt_6
libQt6Quick3D.so.6:_ZN15QSSGShaderUtils15uniformTypeNameE9QMetaType@@Qt_6
libQt6Quick3D.so.6:_ZN15QSSGShaderUtils15uniformTypeNameEN21QSSGRenderShaderValue4TypeE@@Qt_6
libQt6Quick3D.so.6:_ZN15QSSGShaderUtils18setResolveFunctionEPFbRK4QUrlPK11QQmlContextR10QByteArrayS7_E@@Qt_6
libQt6Quick3D.so.6:_ZN15QSSGShaderUtils18supportedMetatypesEv@@Qt_6
libQt6Quick3D.so.6:_ZN16QQuick3DGeometry11qt_metacallEN11QMetaObject4CallEiPPv@@Qt_6
libQt6Quick3D.so.6:_ZN16QQuick3DGeometry11qt_metacastEPKc@@Qt_6
libQt6Quick3D.so.6:_ZN16QQuick3DGeometry12addAttributeENS_9Attribute8SemanticEiNS0_13ComponentTypeE@@Qt_6
libQt6Quick3D.so.6:_ZN16QQuick3DGeometry12addAttributeERKNS_9AttributeE@@Qt_6
libQt6Quick3D.so.6:_ZN16QQuick3DGeometry12markAllDirtyEv@@Qt_6
libQt6Quick3D.so.6:_ZN16QQuick3DGeometry12setIndexDataERK10QByteArray@@Qt_6
libQt6Quick3D.so.6:_ZN16QQuick3DGeometry12setIndexDataEiRK10QByteArray@@Qt_6
libQt6Quick3D.so.6:_ZN16QQuick3DGeometry13setTargetDataERK10QByteArray@@Qt_6
libQt6Quick3D.so.6:_ZN16QQuick3DGeometry13setTargetDataEiRK10QByteArray@@Qt_6
libQt6Quick3D.so.6:_ZN16QQuick3DGeometry13setVertexDataERK10QByteArray@@Qt_6
libQt6Quick3D.so.6:_ZN16QQuick3DGeometry13setVertexDataEiRK10QByteArray@@Qt_6
libQt6Quick3D.so.6:_ZN16QQuick3DGeometry15geometryChangedEv@@Qt_6
libQt6Quick3D.so.6:_ZN16QQuick3DGeometry16setPrimitiveTypeENS_13PrimitiveTypeE@@Qt_6
libQt6Quick3D.so.6:_ZN16QQuick3DGeometry17geometryNodeDirtyEv@@Qt_6
libQt6Quick3D.so.6:_ZN16QQuick3DGeometry17updateSpatialNodeEP21QSSGRenderGraphObject@@Qt_6
libQt6Quick3D.so.6:_ZN16QQuick3DGeometry18addTargetAttributeERKNS_15TargetAttributeE@@Qt_6
libQt6Quick3D.so.6:_ZN16QQuick3DGeometry18addTargetAttributeEjNS_9Attribute8SemanticEii@@Qt_6
libQt6Quick3D.so.6:_ZN16QQuick3DGeometry5clearEv@@Qt_6
libQt6Quick3D.so.6:_ZN16QQuick3DGeometry9addSubsetEiiRK9QVector3DS2_RK7QString@@Qt_6
libQt6Quick3D.so.6:_ZN16QQuick3DGeometry9setBoundsERK9QVector3DS2_@@Qt_6
libQt6Quick3D.so.6:_ZN16QQuick3DGeometry9setStrideEi@@Qt_6
libQt6Quick3D.so.6:_ZN16QQuick3DGeometryC1EP14QQuick3DObject@@Qt_6
libQt6Quick3D.so.6:_ZN16QQuick3DGeometryC2EP14QQuick3DObject@@Qt_6
libQt6Quick3D.so.6:_ZN16QQuick3DGeometryD0Ev@@Qt_6
libQt6Quick3D.so.6:_ZN16QQuick3DGeometryD1Ev@@Qt_6
libQt6Quick3D.so.6:_ZN16QQuick3DGeometryD2Ev@@Qt_6
libQt6Quick3D.so.6:_ZN16QQuick3DMaterial10itemChangeEN14QQuick3DObject10ItemChangeERKNS0_14ItemChangeDataE@@Qt_6_PRIVATE_API
libQt6Quick3D.so.6:_ZN16QQuick3DMaterial11qt_metacallEN11QMetaObject4CallEiPPv@@Qt_6_PRIVATE_API
libQt6Quick3D.so.6:_ZN16QQuick3DMaterial11qt_metacastEPKc@@Qt_6_PRIVATE_API
libQt6Quick3D.so.6:_ZN16QQuick3DMaterial11setCullModeENS_8CullModeE@@Qt_6_PRIVATE_API
libQt6Quick3D.so.6:_ZN16QQuick3DMaterial13setLightProbeEP15QQuick3DTexture@@Qt_6_PRIVATE_API
libQt6Quick3D.so.6:_ZN16QQuick3DMaterial15cullModeChangedENS_8CullModeE@@Qt_6_PRIVATE_API
libQt6Quick3D.so.6:_ZN16QQuick3DMaterial16setDepthDrawModeENS_13DepthDrawModeE@@Qt_6_PRIVATE_API
libQt6Quick3D.so.6:_ZN16QQuick3DMaterial17lightProbeChangedEP15QQuick3DTexture@@Qt_6_PRIVATE_API
libQt6Quick3D.so.6:_ZN16QQuick3DMaterial17updateSpatialNodeEP21QSSGRenderGraphObject@@Qt_6_PRIVATE_API
libQt6Quick3D.so.6:_ZN16QQuick3DMaterial18updateSceneManagerEP20QQuick3DSceneManager@@Qt_6_PRIVATE_API
libQt6Quick3D.so.6:_ZN16QQuick3DMaterial20depthDrawModeChangedENS_13DepthDrawModeE@@Qt_6_PRIVATE_API
libQt6Quick3D.so.6:_ZN16QQuick3DMaterialC1ER21QQuick3DObjectPrivateP14QQuick3DObject@@Qt_6_PRIVATE_API
libQt6Quick3D.so.6:_ZN16QQuick3DMaterialC2ER21QQuick3DObjectPrivateP14QQuick3DObject@@Qt_6_PRIVATE_API
libQt6Quick3D.so.6:_ZN16QQuick3DMaterialD0Ev@@Qt_6_PRIVATE_API
libQt6Quick3D.so.6:_ZN16QQuick3DMaterialD1Ev@@Qt_6_PRIVATE_API
libQt6Quick3D.so.6:_ZN16QQuick3DMaterialD2Ev@@Qt_6_PRIVATE_API
libQt6Quick3D.so.6:_ZN16QQuick3DRepeater10initObjectEiP7QObject@@Qt_6_PRIVATE_API
libQt6Quick3D.so.6:_ZN16QQuick3DRepeater10itemChangeEN14QQuick3DObject10ItemChangeERKNS0_14ItemChangeDataE@@Qt_6_PRIVATE_API
libQt6Quick3D.so.6:_ZN16QQuick3DRepeater10regenerateEv@@Qt_6_PRIVATE_API
libQt6Quick3D.so.6:_ZN16QQuick3DRepeater11objectAddedEiP14QQuick3DObject@@Qt_6_PRIVATE_API
libQt6Quick3D.so.6:_ZN16QQuick3DRepeater11qt_metacallEN11QMetaObject4CallEiPPv@@Qt_6_PRIVATE_API
libQt6Quick3D.so.6:_ZN16QQuick3DRepeater11qt_metacastEPKc@@Qt_6_PRIVATE_API
libQt6Quick3D.so.6:_ZN16QQuick3DRepeater11setDelegateEP13QQmlComponent@@Qt_6_PRIVATE_API
libQt6Quick3D.so.6:_ZN16QQuick3DRepeater12countChangedEv@@Qt_6_PRIVATE_API
libQt6Quick3D.so.6:_ZN16QQuick3DRepeater12modelChangedEv@@Qt_6_PRIVATE_API
libQt6Quick3D.so.6:_ZN16QQuick3DRepeater12modelUpdatedERK13QQmlChangeSetb@@Qt_6_PRIVATE_API
libQt6Quick3D.so.6:_ZN16QQuick3DRepeater12requestItemsEv@@Qt_6_PRIVATE_API
libQt6Quick3D.so.6:_ZN16QQuick3DRepeater13createdObjectEiP7QObject@@Qt_6_PRIVATE_API
libQt6Quick3D.so.6:_ZN16QQuick3DRepeater13objectRemovedEiP14QQuick3DObject@@Qt_6_PRIVATE_API
libQt6Quick3D.so.6:_ZN16QQuick3DRepeater15delegateChangedEv@@Qt_6_PRIVATE_API
libQt6Quick3D.so.6:_ZN16QQuick3DRepeater17componentCompleteEv@@Qt_6_PRIVATE_API
libQt6Quick3D.so.6:_ZN16QQuick3DRepeater5clearEv@@Qt_6_PRIVATE_API
libQt6Quick3D.so.6:_ZN16QQuick3DRepeater8setModelERK8QVariant@@Qt_6_PRIVATE_API
libQt6Quick3D.so.6:_ZN16QQuick3DRepeaterC1EP12QQuick3DNode@@Qt_6_PRIVATE_API
libQt6Quick3D.so.6:_ZN16QQuick3DRepeaterC2EP12QQuick3DNode@@Qt_6_PRIVATE_API
libQt6Quick3D.so.6:_ZN16QQuick3DRepeaterD0Ev@@Qt_6_PRIVATE_API
libQt6Quick3D.so.6:_ZN16QQuick3DRepeaterD1Ev@@Qt_6_PRIVATE_API
libQt6Quick3D.so.6:_ZN16QQuick3DRepeaterD2Ev@@Qt_6_PRIVATE_API
libQt6Quick3D.so.6:_ZN16QQuick3DSkeleton11qt_metacallEN11QMetaObject4CallEiPPv@@Qt_6_PRIVATE_API
libQt6Quick3D.so.6:_ZN16QQuick3DSkeleton11qt_metacastEPKc@@Qt_6_PRIVATE_API
libQt6Quick3D.so.6:_ZN16QQuick3DSkeleton17skeletonNodeDirtyEv@@Qt_6_PRIVATE_API
libQt6Quick3D.so.6:_ZN16QQuick3DSkeleton17updateSpatialNodeEP21QSSGRenderGraphObject@@Qt_6_PRIVATE_API
libQt6Quick3D.so.6:_ZN16QQuick3DSkeletonC1EP12QQuick3DNode@@Qt_6_PRIVATE_API
libQt6Quick3D.so.6:_ZN16QQuick3DSkeletonC2EP12QQuick3DNode@@Qt_6_PRIVATE_API
libQt6Quick3D.so.6:_ZN16QQuick3DSkeletonD0Ev@@Qt_6_PRIVATE_API
libQt6Quick3D.so.6:_ZN16QQuick3DSkeletonD1Ev@@Qt_6_PRIVATE_API
libQt6Quick3D.so.6:_ZN16QQuick3DSkeletonD2Ev@@Qt_6_PRIVATE_API
libQt6Quick3D.so.6:_ZN16QQuick3DViewport10extensionsEv@@Qt_6_PRIVATE_API
libQt6Quick3D.so.6:_ZN16QQuick3DViewport10itemChangeEN10QQuickItem10ItemChangeERKNS0_14ItemChangeDataE@@Qt_6_PRIVATE_API
libQt6Quick3D.so.6:_ZN16QQuick3DViewport11qt_metacallEN11QMetaObject4CallEiPPv@@Qt_6_PRIVATE_API
libQt6Quick3D.so.6:_ZN16QQuick3DViewport11qt_metacastEPKc@@Qt_6_PRIVATE_API
libQt6Quick3D.so.6:_ZN16QQuick3DViewport12bakeLightmapEv@@Qt_6_PRIVATE_API
libQt6Quick3D.so.6:_ZN16QQuick3DViewport12sceneChangedEv@@Qt_6_PRIVATE_API
libQt6Quick3D.so.6:_ZN16QQuick3DViewport13cameraChangedEv@@Qt_6_PRIVATE_API
libQt6Quick3D.so.6:_ZN16QQuick3DViewport13lightmapBakerEv@@Qt_6_PRIVATE_API
libQt6Quick3D.so.6:_ZN16QQuick3DViewport13setRenderModeENS_10RenderModeE@@Qt_6_PRIVATE_API
libQt6Quick3D.so.6:_ZN16QQuick3DViewport14geometryChangeERK6QRectFS2_@@Qt_6_PRIVATE_API
libQt6Quick3D.so.6:_ZN16QQuick3DViewport14setEnvironmentEP24QQuick3DSceneEnvironment@@Qt_6_PRIVATE_API
libQt6Quick3D.so.6:_ZN16QQuick3DViewport14setImportSceneEP12QQuick3DNode@@Qt_6_PRIVATE_API
libQt6Quick3D.so.6:_ZN16QQuick3DViewport15setRenderFormatEN24QQuickShaderEffectSource6FormatE@@Qt_6_PRIVATE_API
libQt6Quick3D.so.6:_ZN16QQuick3DViewport15updatePaintNodeEP7QSGNodePN10QQuickItem19UpdatePaintNodeDataE@@Qt_6_PRIVATE_API
libQt6Quick3D.so.6:_ZN16QQuick3DViewport16releaseResourcesEv@@Qt_6_PRIVATE_API
libQt6Quick3D.so.6:_ZN16QQuick3DViewport17componentCompleteEv@@Qt_6_PRIVATE_API
libQt6Quick3D.so.6:_ZN16QQuick3DViewport17renderModeChangedEv@@Qt_6_PRIVATE_API
libQt6Quick3D.so.6:_ZN16QQuick3DViewport18environmentChangedEv@@Qt_6_PRIVATE_API
libQt6Quick3D.so.6:_ZN16QQuick3DViewport18importSceneChangedEv@@Qt_6_PRIVATE_API
libQt6Quick3D.so.6:_ZN16QQuick3DViewport18maybeLightmapBakerEv@@Qt_6_PRIVATE_API
libQt6Quick3D.so.6:_ZN16QQuick3DViewport19renderFormatChangedEv@@Qt_6_PRIVATE_API
libQt6Quick3D.so.6:_ZN16QQuick3DViewport19setupDirectRendererENS_10RenderModeE@@Qt_6_PRIVATE_API
libQt6Quick3D.so.6:_ZN16QQuick3DViewport19setupInlineRendererEP7QSGNode@@Qt_6_PRIVATE_API
libQt6Quick3D.so.6:_ZN16QQuick3DViewport20invalidateSceneGraphEv@@Qt_6_PRIVATE_API
libQt6Quick3D.so.6:_ZN16QQuick3DViewport20rebuildExtensionListEv@@Qt_6_PRIVATE_API
libQt6Quick3D.so.6:_ZN16QQuick3DViewport21cleanupDirectRendererEv@@Qt_6_PRIVATE_API
libQt6Quick3D.so.6:_ZN16QQuick3DViewport21findChildSceneManagerEP14QQuick3DObjectP20QQuick3DSceneManager@@Qt_6_PRIVATE_API
libQt6Quick3D.so.6:_ZN16QQuick3DViewport21updateDynamicTexturesEv@@Qt_6_PRIVATE_API
libQt6Quick3D.so.6:_ZN16QQuick3DViewport21updateInputProcessingEv@@Qt_6_PRIVATE_API
libQt6Quick3D.so.6:_ZN16QQuick3DViewport22setupOffscreenRendererEP7QSGNode@@Qt_6_PRIVATE_API
libQt6Quick3D.so.6:_ZN16QQuick3DViewport23setExplicitTextureWidthEi@@Qt_6_PRIVATE_API
libQt6Quick3D.so.6:_ZN16QQuick3DViewport23setGlobalPickingEnabledEb@@Qt_6_PRIVATE_API
libQt6Quick3D.so.6:_ZN16QQuick3DViewport24onReleaseCachedResourcesEv@@Qt_6_PRIVATE_API
libQt6Quick3D.so.6:_ZN16QQuick3DViewport24setExplicitTextureHeightEi@@Qt_6_PRIVATE_API
libQt6Quick3D.so.6:_ZN16QQuick3DViewport26processPointerEventFromRayERK9QVector3DS2_P13QPointerEvent@@Qt_6_PRIVATE_API
libQt6Quick3D.so.6:_ZN16QQuick3DViewport27effectiveTextureSizeChangedEv@@Qt_6_PRIVATE_API
libQt6Quick3D.so.6:_ZN16QQuick3DViewport27explicitTextureWidthChangedEv@@Qt_6_PRIVATE_API
libQt6Quick3D.so.6:_ZN16QQuick3DViewport28explicitTextureHeightChangedEv@@Qt_6_PRIVATE_API
libQt6Quick3D.so.6:_ZN16QQuick3DViewport4dataEv@@Qt_6_PRIVATE_API
libQt6Quick3D.so.6:_ZN16QQuick3DViewport5eventEP6QEvent@@Qt_6_PRIVATE_API
libQt6Quick3D.so.6:_ZN16QQuick3DViewport9setCameraEP14QQuick3DCamera@@Qt_6_PRIVATE_API
libQt6Quick3D.so.6:_ZN16QQuick3DViewportC1EP10QQuickItem@@Qt_6_PRIVATE_API
libQt6Quick3D.so.6:_ZN16QQuick3DViewportC2EP10QQuickItem@@Qt_6_PRIVATE_API
libQt6Quick3D.so.6:_ZN16QQuick3DViewportD0Ev@@Qt_6_PRIVATE_API
libQt6Quick3D.so.6:_ZN16QQuick3DViewportD1Ev@@Qt_6_PRIVATE_API
libQt6Quick3D.so.6:_ZN16QQuick3DViewportD2Ev@@Qt_6_PRIVATE_API
libQt6Quick3D.so.6:_ZN17QQuick3DSpotLight11qt_metacallEN11QMetaObject4CallEiPPv@@Qt_6_PRIVATE_API
libQt6Quick3D.so.6:_ZN17QQuick3DSpotLight11qt_metacastEPKc@@Qt_6_PRIVATE_API
libQt6Quick3D.so.6:_ZN17QQuick3DSpotLight12setConeAngleEf@@Qt_6_PRIVATE_API
libQt6Quick3D.so.6:_ZN17QQuick3DSpotLight13setLinearFadeEf@@Qt_6_PRIVATE_API
libQt6Quick3D.so.6:_ZN17QQuick3DSpotLight15setConstantFadeEf@@Qt_6_PRIVATE_API
libQt6Quick3D.so.6:_ZN17QQuick3DSpotLight16coneAngleChangedEv@@Qt_6_PRIVATE_API
libQt6Quick3D.so.6:_ZN17QQuick3DSpotLight16setQuadraticFadeEf@@Qt_6_PRIVATE_API
libQt6Quick3D.so.6:_ZN17QQuick3DSpotLight17linearFadeChangedEv@@Qt_6_PRIVATE_API
libQt6Quick3D.so.6:_ZN17QQuick3DSpotLight17setInnerConeAngleEf@@Qt_6_PRIVATE_API
libQt6Quick3D.so.6:_ZN17QQuick3DSpotLight17updateSpatialNodeEP21QSSGRenderGraphObject@@Qt_6_PRIVATE_API
libQt6Quick3D.so.6:_ZN17QQuick3DSpotLight19constantFadeChangedEv@@Qt_6_PRIVATE_API
libQt6Quick3D.so.6:_ZN17QQuick3DSpotLight20quadraticFadeChangedEv@@Qt_6_PRIVATE_API
libQt6Quick3D.so.6:_ZN17QQuick3DSpotLight21innerConeAngleChangedEv@@Qt_6_PRIVATE_API
libQt6Quick3D.so.6:_ZN17QQuick3DSpotLightC1EP12QQuick3DNode@@Qt_6_PRIVATE_API
libQt6Quick3D.so.6:_ZN17QQuick3DSpotLightC2EP12QQuick3DNode@@Qt_6_PRIVATE_API
libQt6Quick3D.so.6:_ZN18QQuick3DInstancing11qt_metacallEN11QMetaObject4CallEiPPv@@Qt_6
libQt6Quick3D.so.6:_ZN18QQuick3DInstancing11qt_metacastEPKc@@Qt_6
libQt6Quick3D.so.6:_ZN18QQuick3DInstancing13instanceColorEi@@Qt_6
libQt6Quick3D.so.6:_ZN18QQuick3DInstancing13instanceScaleEi@@Qt_6
libQt6Quick3D.so.6:_ZN18QQuick3DInstancing14instanceBufferEPi@@Qt_6
libQt6Quick3D.so.6:_ZN18QQuick3DInstancing16getInstanceEntryEi@@Qt_6
libQt6Quick3D.so.6:_ZN18QQuick3DInstancing16instancePositionEi@@Qt_6
libQt6Quick3D.so.6:_ZN18QQuick3DInstancing16instanceRotationEi@@Qt_6
libQt6Quick3D.so.6:_ZN18QQuick3DInstancing17instanceNodeDirtyEv@@Qt_6
libQt6Quick3D.so.6:_ZN18QQuick3DInstancing17updateSpatialNodeEP21QSSGRenderGraphObject@@Qt_6
libQt6Quick3D.so.6:_ZN18QQuick3DInstancing18instanceCustomDataEi@@Qt_6
libQt6Quick3D.so.6:_ZN18QQuick3DInstancing18setHasTransparencyEb@@Qt_6
libQt6Quick3D.so.6:_ZN18QQuick3DInstancing19calculateTableEntryERK9QVector3DS2_S2_RK6QColorRK9QVector4D@@Qt_6
libQt6Quick3D.so.6:_ZN18QQuick3DInstancing20instanceTableChangedEv@@Qt_6
libQt6Quick3D.so.6:_ZN18QQuick3DInstancing22hasTransparencyChangedEv@@Qt_6
libQt6Quick3D.so.6:_ZN18QQuick3DInstancing22setDepthSortingEnabledEb@@Qt_6
libQt6Quick3D.so.6:_ZN18QQuick3DInstancing24setInstanceCountOverrideEi@@Qt_6
libQt6Quick3D.so.6:_ZN18QQuick3DInstancing26depthSortingEnabledChangedEv@@Qt_6
libQt6Quick3D.so.6:_ZN18QQuick3DInstancing28instanceCountOverrideChangedEv@@Qt_6
libQt6Quick3D.so.6:_ZN18QQuick3DInstancing33calculateTableEntryFromQuaternionERK9QVector3DS2_RK11QQuaternionRK6QColorRK9QVector4D@@Qt_6
libQt6Quick3D.so.6:_ZN18QQuick3DInstancing9markDirtyEv@@Qt_6
libQt6Quick3D.so.6:_ZN18QQuick3DInstancingC1EP14QQuick3DObject@@Qt_6
libQt6Quick3D.so.6:_ZN18QQuick3DInstancingC2EP14QQuick3DObject@@Qt_6
libQt6Quick3D.so.6:_ZN18QQuick3DInstancingD0Ev@@Qt_6
libQt6Quick3D.so.6:_ZN18QQuick3DInstancingD1Ev@@Qt_6
libQt6Quick3D.so.6:_ZN18QQuick3DInstancingD2Ev@@Qt_6
libQt6Quick3D.so.6:_ZN18QQuick3DPickResultC1EP13QQuick3DModelfRK9QVector2DRK9QVector3DS7_S7_i@@Qt_6_PRIVATE_API
libQt6Quick3D.so.6:_ZN18QQuick3DPickResultC1Ev@@Qt_6_PRIVATE_API
libQt6Quick3D.so.6:_ZN18QQuick3DPickResultC2EP13QQuick3DModelfRK9QVector2DRK9QVector3DS7_S7_i@@Qt_6_PRIVATE_API
libQt6Quick3D.so.6:_ZN18QQuick3DPickResultC2Ev@@Qt_6_PRIVATE_API
libQt6Quick3D.so.6:_ZN18QQuick3DPointLight11qt_metacallEN11QMetaObject4CallEiPPv@@Qt_6_PRIVATE_API
libQt6Quick3D.so.6:_ZN18QQuick3DPointLight11qt_metacastEPKc@@Qt_6_PRIVATE_API
libQt6Quick3D.so.6:_ZN18QQuick3DPointLight13setLinearFadeEf@@Qt_6_PRIVATE_API
libQt6Quick3D.so.6:_ZN18QQuick3DPointLight15setConstantFadeEf@@Qt_6_PRIVATE_API
libQt6Quick3D.so.6:_ZN18QQuick3DPointLight16setQuadraticFadeEf@@Qt_6_PRIVATE_API
libQt6Quick3D.so.6:_ZN18QQuick3DPointLight17linearFadeChangedEv@@Qt_6_PRIVATE_API
libQt6Quick3D.so.6:_ZN18QQuick3DPointLight17updateSpatialNodeEP21QSSGRenderGraphObject@@Qt_6_PRIVATE_API
libQt6Quick3D.so.6:_ZN18QQuick3DPointLight19constantFadeChangedEv@@Qt_6_PRIVATE_API
libQt6Quick3D.so.6:_ZN18QQuick3DPointLight20quadraticFadeChangedEv@@Qt_6_PRIVATE_API
libQt6Quick3D.so.6:_ZN18QQuick3DPointLightC1EP12QQuick3DNode@@Qt_6_PRIVATE_API
libQt6Quick3D.so.6:_ZN18QQuick3DPointLightC2EP12QQuick3DNode@@Qt_6_PRIVATE_API
libQt6Quick3D.so.6:_ZN19QQuick3DLightmapper10setBouncesEi@@Qt_6_PRIVATE_API
libQt6Quick3D.so.6:_ZN19QQuick3DLightmapper10setSamplesEi@@Qt_6_PRIVATE_API
libQt6Quick3D.so.6:_ZN19QQuick3DLightmapper11biasChangedEv@@Qt_6_PRIVATE_API
libQt6Quick3D.so.6:_ZN19QQuick3DLightmapper11qt_metacallEN11QMetaObject4CallEiPPv@@Qt_6_PRIVATE_API
libQt6Quick3D.so.6:_ZN19QQuick3DLightmapper11qt_metacastEPKc@@Qt_6_PRIVATE_API
libQt6Quick3D.so.6:_ZN19QQuick3DLightmapper14bouncesChangedEv@@Qt_6_PRIVATE_API
libQt6Quick3D.so.6:_ZN19QQuick3DLightmapper14samplesChangedEv@@Qt_6_PRIVATE_API
libQt6Quick3D.so.6:_ZN19QQuick3DLightmapper19setOpacityThresholdEf@@Qt_6_PRIVATE_API
libQt6Quick3D.so.6:_ZN19QQuick3DLightmapper22setAdaptiveBiasEnabledEb@@Qt_6_PRIVATE_API
libQt6Quick3D.so.6:_ZN19QQuick3DLightmapper22setIndirectLightFactorEf@@Qt_6_PRIVATE_API
libQt6Quick3D.so.6:_ZN19QQuick3DLightmapper23opacityThresholdChangedEv@@Qt_6_PRIVATE_API
libQt6Quick3D.so.6:_ZN19QQuick3DLightmapper23setIndirectLightEnabledEb@@Qt_6_PRIVATE_API
libQt6Quick3D.so.6:_ZN19QQuick3DLightmapper26adaptiveBiasEnabledChangedEv@@Qt_6_PRIVATE_API
libQt6Quick3D.so.6:_ZN19QQuick3DLightmapper26indirectLightFactorChangedEv@@Qt_6_PRIVATE_API
libQt6Quick3D.so.6:_ZN19QQuick3DLightmapper27indirectLightEnabledChangedEv@@Qt_6_PRIVATE_API
libQt6Quick3D.so.6:_ZN19QQuick3DLightmapper29setIndirectLightWorkgroupSizeEi@@Qt_6_PRIVATE_API
libQt6Quick3D.so.6:_ZN19QQuick3DLightmapper33indirectLightWorkgroupSizeChangedEv@@Qt_6_PRIVATE_API
libQt6Quick3D.so.6:_ZN19QQuick3DLightmapper7changedEv@@Qt_6_PRIVATE_API
libQt6Quick3D.so.6:_ZN19QQuick3DLightmapper7setBiasEf@@Qt_6_PRIVATE_API
libQt6Quick3D.so.6:_ZN19QQuick3DMorphTarget10numAttribsEv@@Qt_6_PRIVATE_API
libQt6Quick3D.so.6:_ZN19QQuick3DMorphTarget11qt_metacallEN11QMetaObject4CallEiPPv@@Qt_6_PRIVATE_API
libQt6Quick3D.so.6:_ZN19QQuick3DMorphTarget11qt_metacastEPKc@@Qt_6_PRIVATE_API
libQt6Quick3D.so.6:_ZN19QQuick3DMorphTarget12markAllDirtyEv@@Qt_6_PRIVATE_API
libQt6Quick3D.so.6:_ZN19QQuick3DMorphTarget13setAttributesE6QFlagsINS_20MorphTargetAttributeEE@@Qt_6_PRIVATE_API
libQt6Quick3D.so.6:_ZN19QQuick3DMorphTarget13weightChangedEv@@Qt_6_PRIVATE_API
libQt6Quick3D.so.6:_ZN19QQuick3DMorphTarget17attributesChangedEv@@Qt_6_PRIVATE_API
libQt6Quick3D.so.6:_ZN19QQuick3DMorphTarget17updateSpatialNodeEP21QSSGRenderGraphObject@@Qt_6_PRIVATE_API
libQt6Quick3D.so.6:_ZN19QQuick3DMorphTarget9markDirtyENS_24QSSGMorphTargetDirtyTypeE@@Qt_6_PRIVATE_API
libQt6Quick3D.so.6:_ZN19QQuick3DMorphTarget9setWeightEf@@Qt_6_PRIVATE_API
libQt6Quick3D.so.6:_ZN19QQuick3DMorphTargetC1EP14QQuick3DObject@@Qt_6_PRIVATE_API
libQt6Quick3D.so.6:_ZN19QQuick3DMorphTargetC2EP14QQuick3DObject@@Qt_6_PRIVATE_API
libQt6Quick3D.so.6:_ZN19QQuick3DMorphTargetD0Ev@@Qt_6_PRIVATE_API
libQt6Quick3D.so.6:_ZN19QQuick3DMorphTargetD1Ev@@Qt_6_PRIVATE_API
libQt6Quick3D.so.6:_ZN19QQuick3DMorphTargetD2Ev@@Qt_6_PRIVATE_API
libQt6Quick3D.so.6:_ZN19QQuick3DNodePrivate19setIsHiddenInEditorEb@@Qt_6_PRIVATE_API
libQt6Quick3D.so.6:_ZN19QQuick3DNodePrivate23markSceneTransformDirtyEv@@Qt_6_PRIVATE_API
libQt6Quick3D.so.6:_ZN19QQuick3DNodePrivate24calculateGlobalVariablesEv@@Qt_6_PRIVATE_API
libQt6Quick3D.so.6:_ZN19QQuick3DNodePrivate27emitChangesToSceneTransformEv@@Qt_6_PRIVATE_API
libQt6Quick3D.so.6:_ZN19QQuick3DNodePrivate4initEv@@Qt_6_PRIVATE_API
libQt6Quick3D.so.6:_ZN19QQuick3DNodePrivateC1EN21QSSGRenderGraphObject4TypeE@@Qt_6_PRIVATE_API
libQt6Quick3D.so.6:_ZN19QQuick3DNodePrivateC2EN21QSSGRenderGraphObject4TypeE@@Qt_6_PRIVATE_API
libQt6Quick3D.so.6:_ZN19QQuick3DNodePrivateD0Ev@@Qt_6_PRIVATE_API
libQt6Quick3D.so.6:_ZN19QQuick3DNodePrivateD1Ev@@Qt_6_PRIVATE_API
libQt6Quick3D.so.6:_ZN19QQuick3DNodePrivateD2Ev@@Qt_6_PRIVATE_API
libQt6Quick3D.so.6:_ZN19QQuick3DRenderStats10fpsChangedEv@@Qt_6_PRIVATE_API
libQt6Quick3D.so.6:_ZN19QQuick3DRenderStats11qt_metacallEN11QMetaObject4CallEiPPv@@Qt_6_PRIVATE_API
libQt6Quick3D.so.6:_ZN19QQuick3DRenderStats11qt_metacastEPKc@@Qt_6_PRIVATE_API
libQt6Quick3D.so.6:_ZN19QQuick3DRenderStats11startRenderEv@@Qt_6_PRIVATE_API
libQt6Quick3D.so.6:_ZN19QQuick3DRenderStats13setRhiContextEP14QSSGRhiContextP15QSSGRenderLayer@@Qt_6_PRIVATE_API
libQt6Quick3D.so.6:_ZN19QQuick3DRenderStats14onFrameSwappedEv@@Qt_6_PRIVATE_API
libQt6Quick3D.so.6:_ZN19QQuick3DRenderStats15syncTimeChangedEv@@Qt_6_PRIVATE_API
libQt6Quick3D.so.6:_ZN19QQuick3DRenderStats16endRenderPrepareEv@@Qt_6_PRIVATE_API
libQt6Quick3D.so.6:_ZN19QQuick3DRenderStats16frameTimeChangedEv@@Qt_6_PRIVATE_API
libQt6Quick3D.so.6:_ZN19QQuick3DRenderStats17renderTimeChangedEv@@Qt_6_PRIVATE_API
libQt6Quick3D.so.6:_ZN19QQuick3DRenderStats18meshDetailsChangedEv@@Qt_6_PRIVATE_API
libQt6Quick3D.so.6:_ZN19QQuick3DRenderStats18startRenderPrepareEv@@Qt_6_PRIVATE_API
libQt6Quick3D.so.6:_ZN19QQuick3DRenderStats19maxFrameTimeChangedEv@@Qt_6_PRIVATE_API
libQt6Quick3D.so.6:_ZN19QQuick3DRenderStats19meshDataSizeChangedEv@@Qt_6_PRIVATE_API
libQt6Quick3D.so.6:_ZN19QQuick3DRenderStats20drawCallCountChangedEv@@Qt_6_PRIVATE_API
libQt6Quick3D.so.6:_ZN19QQuick3DRenderStats20imageDataSizeChangedEv@@Qt_6_PRIVATE_API
libQt6Quick3D.so.6:_ZN19QQuick3DRenderStats20pipelineCountChangedEv@@Qt_6_PRIVATE_API
libQt6Quick3D.so.6:_ZN19QQuick3DRenderStats20vmemUsedBytesChangedEv@@Qt_6_PRIVATE_API
libQt6Quick3D.so.6:_ZN19QQuick3DRenderStats21notifyRhiContextStatsEv@@Qt_6_PRIVATE_API
libQt6Quick3D.so.6:_ZN19QQuick3DRenderStats21textureDetailsChangedEv@@Qt_6_PRIVATE_API
libQt6Quick3D.so.6:_ZN19QQuick3DRenderStats21vmemAllocCountChangedEv@@Qt_6_PRIVATE_API
libQt6Quick3D.so.6:_ZN19QQuick3DRenderStats22drawVertexCountChangedEv@@Qt_6_PRIVATE_API
libQt6Quick3D.so.6:_ZN19QQuick3DRenderStats22graphicsApiNameChangedEv@@Qt_6_PRIVATE_API
libQt6Quick3D.so.6:_ZN19QQuick3DRenderStats22processRhiContextStatsEv@@Qt_6_PRIVATE_API
libQt6Quick3D.so.6:_ZN19QQuick3DRenderStats22releaseCachedResourcesEv@@Qt_6_PRIVATE_API
libQt6Quick3D.so.6:_ZN19QQuick3DRenderStats22renderPassCountChangedEv@@Qt_6_PRIVATE_API
libQt6Quick3D.so.6:_ZN19QQuick3DRenderStats24renderPassDetailsChangedEv@@Qt_6_PRIVATE_API
libQt6Quick3D.so.6:_ZN19QQuick3DRenderStats27effectGenerationTimeChangedEv@@Qt_6_PRIVATE_API
libQt6Quick3D.so.6:_ZN19QQuick3DRenderStats27lastCompletedGpuTimeChangedEv@@Qt_6_PRIVATE_API
libQt6Quick3D.so.6:_ZN19QQuick3DRenderStats27pipelineCreationTimeChangedEv@@Qt_6_PRIVATE_API
libQt6Quick3D.so.6:_ZN19QQuick3DRenderStats29materialGenerationTimeChangedEv@@Qt_6_PRIVATE_API
libQt6Quick3D.so.6:_ZN19QQuick3DRenderStats32setExtendedDataCollectionEnabledEb@@Qt_6_PRIVATE_API
libQt6Quick3D.so.6:_ZN19QQuick3DRenderStats36extendedDataCollectionEnabledChangedEv@@Qt_6_PRIVATE_API
libQt6Quick3D.so.6:_ZN19QQuick3DRenderStats7endSyncEb@@Qt_6_PRIVATE_API
libQt6Quick3D.so.6:_ZN19QQuick3DRenderStats9endRenderEb@@Qt_6_PRIVATE_API
libQt6Quick3D.so.6:_ZN19QQuick3DRenderStats9setWindowEP12QQuickWindow@@Qt_6_PRIVATE_API
libQt6Quick3D.so.6:_ZN19QQuick3DRenderStats9startSyncEv@@Qt_6_PRIVATE_API
libQt6Quick3D.so.6:_ZN19QQuick3DRenderStatsC1EP7QObject@@Qt_6_PRIVATE_API
libQt6Quick3D.so.6:_ZN19QQuick3DRenderStatsC2EP7QObject@@Qt_6_PRIVATE_API
libQt6Quick3D.so.6:_ZN19QQuick3DTextureData11qt_metacallEN11QMetaObject4CallEiPPv@@Qt_6
libQt6Quick3D.so.6:_ZN19QQuick3DTextureData11qt_metacastEPKc@@Qt_6
libQt6Quick3D.so.6:_ZN19QQuick3DTextureData12markAllDirtyEv@@Qt_6
libQt6Quick3D.so.6:_ZN19QQuick3DTextureData14setTextureDataERK10QByteArray@@Qt_6
libQt6Quick3D.so.6:_ZN19QQuick3DTextureData17updateSpatialNodeEP21QSSGRenderGraphObject@@Qt_6
libQt6Quick3D.so.6:_ZN19QQuick3DTextureData18setHasTransparencyEb@@Qt_6
libQt6Quick3D.so.6:_ZN19QQuick3DTextureData20textureDataNodeDirtyEv@@Qt_6
libQt6Quick3D.so.6:_ZN19QQuick3DTextureData7setSizeERK5QSize@@Qt_6
libQt6Quick3D.so.6:_ZN19QQuick3DTextureData8setDepthEi@@Qt_6
libQt6Quick3D.so.6:_ZN19QQuick3DTextureData9setFormatENS_6FormatE@@Qt_6
libQt6Quick3D.so.6:_ZN19QQuick3DTextureDataC1EP14QQuick3DObject@@Qt_6
libQt6Quick3D.so.6:_ZN19QQuick3DTextureDataC2EP14QQuick3DObject@@Qt_6
libQt6Quick3D.so.6:_ZN19QQuick3DTextureDataD0Ev@@Qt_6
libQt6Quick3D.so.6:_ZN19QQuick3DTextureDataD1Ev@@Qt_6
libQt6Quick3D.so.6:_ZN19QQuick3DTextureDataD2Ev@@Qt_6
libQt6Quick3D.so.6:_ZN20QQuick3DCustomCamera11qt_metacallEN11QMetaObject4CallEiPPv@@Qt_6_PRIVATE_API
libQt6Quick3D.so.6:_ZN20QQuick3DCustomCamera11qt_metacastEPKc@@Qt_6_PRIVATE_API
libQt6Quick3D.so.6:_ZN20QQuick3DCustomCamera13setProjectionERK10QMatrix4x4@@Qt_6_PRIVATE_API
libQt6Quick3D.so.6:_ZN20QQuick3DCustomCamera17projectionChangedEv@@Qt_6_PRIVATE_API
libQt6Quick3D.so.6:_ZN20QQuick3DCustomCamera17updateSpatialNodeEP21QSSGRenderGraphObject@@Qt_6_PRIVATE_API
libQt6Quick3D.so.6:_ZN20QQuick3DCustomCameraC1EP12QQuick3DNode@@Qt_6_PRIVATE_API
libQt6Quick3D.so.6:_ZN20QQuick3DCustomCameraC2EP12QQuick3DNode@@Qt_6_PRIVATE_API
libQt6Quick3D.so.6:_ZN20QQuick3DInstanceList11qt_metacallEN11QMetaObject4CallEiPPv@@Qt_6_PRIVATE_API
libQt6Quick3D.so.6:_ZN20QQuick3DInstanceList11qt_metacastEPKc@@Qt_6_PRIVATE_API
libQt6Quick3D.so.6:_ZN20QQuick3DInstanceList17getInstanceBufferEPi@@Qt_6_PRIVATE_API
libQt6Quick3D.so.6:_ZN20QQuick3DInstanceList19onInstanceDestroyedEP7QObject@@Qt_6_PRIVATE_API
libQt6Quick3D.so.6:_ZN20QQuick3DInstanceList20generateInstanceDataEv@@Qt_6_PRIVATE_API
libQt6Quick3D.so.6:_ZN20QQuick3DInstanceList20handleInstanceChangeEv@@Qt_6_PRIVATE_API
libQt6Quick3D.so.6:_ZN20QQuick3DInstanceList20instanceCountChangedEv@@Qt_6_PRIVATE_API
libQt6Quick3D.so.6:_ZN20QQuick3DInstanceList22qmlInstanceListEntryAtEP16QQmlListPropertyI25QQuick3DInstanceListEntryEx@@Qt_6_PRIVATE_API
libQt6Quick3D.so.6:_ZN20QQuick3DInstanceList26qmlAppendInstanceListEntryEP16QQmlListPropertyI25QQuick3DInstanceListEntryEPS1_@@Qt_6_PRIVATE_API
libQt6Quick3D.so.6:_ZN20QQuick3DInstanceList27qmlClearInstanceListEntriesEP16QQmlListPropertyI25QQuick3DInstanceListEntryE@@Qt_6_PRIVATE_API
libQt6Quick3D.so.6:_ZN20QQuick3DInstanceList27qmlInstanceListEntriesCountEP16QQmlListPropertyI25QQuick3DInstanceListEntryE@@Qt_6_PRIVATE_API
libQt6Quick3D.so.6:_ZN20QQuick3DInstanceList9instancesEv@@Qt_6_PRIVATE_API
libQt6Quick3D.so.6:_ZN20QQuick3DInstanceListC1EP14QQuick3DObject@@Qt_6_PRIVATE_API
libQt6Quick3D.so.6:_ZN20QQuick3DInstanceListC2EP14QQuick3DObject@@Qt_6_PRIVATE_API
libQt6Quick3D.so.6:_ZN20QQuick3DInstanceListD0Ev@@Qt_6_PRIVATE_API
libQt6Quick3D.so.6:_ZN20QQuick3DInstanceListD1Ev@@Qt_6_PRIVATE_API
libQt6Quick3D.so.6:_ZN20QQuick3DInstanceListD2Ev@@Qt_6_PRIVATE_API
libQt6Quick3D.so.6:_ZN20QQuick3DSceneManager11forcePolishEv@@Qt_6_PRIVATE_API
libQt6Quick3D.so.6:_ZN20QQuick3DSceneManager11needsUpdateEv@@Qt_6_PRIVATE_API
libQt6Quick3D.so.6:_ZN20QQuick3DSceneManager11polishItemsEv@@Qt_6_PRIVATE_API
libQt6Quick3D.so.6:_ZN20QQuick3DSceneManager11qt_metacallEN11QMetaObject4CallEiPPv@@Qt_6_PRIVATE_API
libQt6Quick3D.so.6:_ZN20QQuick3DSceneManager11qt_metacastEPKc@@Qt_6_PRIVATE_API
libQt6Quick3D.so.6:_ZN20QQuick3DSceneManager11updateNodesEPP14QQuick3DObject@@Qt_6_PRIVATE_API
libQt6Quick3D.so.6:_ZN20QQuick3DSceneManager12cleanupNodesEv@@Qt_6_PRIVATE_API
libQt6Quick3D.so.6:_ZN20QQuick3DSceneManager13requestUpdateEv@@Qt_6_PRIVATE_API
libQt6Quick3D.so.6:_ZN20QQuick3DSceneManager13windowChangedEv@@Qt_6_PRIVATE_API
libQt6Quick3D.so.6:_ZN20QQuick3DSceneManager15updateResourcesEPP14QQuick3DObject@@Qt_6_PRIVATE_API
libQt6Quick3D.so.6:_ZN20QQuick3DSceneManager16updateExtensionsEPP14QQuick3DObject@@Qt_6_PRIVATE_API
libQt6Quick3D.so.6:_ZN20QQuick3DSceneManager19updateBoundingBoxesER17QSSGBufferManager@@Qt_6_PRIVATE_API
libQt6Quick3D.so.6:_ZN20QQuick3DSceneManager19updateDirtyResourceEP14QQuick3DObject@@Qt_6_PRIVATE_API
libQt6Quick3D.so.6:_ZN20QQuick3DSceneManager20updateDiryExtensionsEv@@Qt_6_PRIVATE_API
libQt6Quick3D.so.6:_ZN20QQuick3DSceneManager22updateDirtySpatialNodeEP12QQuick3DNode@@Qt_6_PRIVATE_API
libQt6Quick3D.so.6:_ZN20QQuick3DSceneManager23updateDirtySpatialNodesEv@@Qt_6_PRIVATE_API
libQt6Quick3D.so.6:_ZN20QQuick3DSceneManager24getOrSetWindowAttachmentER12QQuickWindow@@Qt_6_PRIVATE_API
libQt6Quick3D.so.6:_ZN20QQuick3DSceneManager24updateDirtyResourceNodesEv@@Qt_6_PRIVATE_API
libQt6Quick3D.so.6:_ZN20QQuick3DSceneManager29updateDirtyResourceSecondPassEv@@Qt_6_PRIVATE_API
libQt6Quick3D.so.6:_ZN20QQuick3DSceneManager4syncEv@@Qt_6_PRIVATE_API
libQt6Quick3D.so.6:_ZN20QQuick3DSceneManager6windowEv@@Qt_6_PRIVATE_API
libQt6Quick3D.so.6:_ZN20QQuick3DSceneManager7cleanupEP21QSSGRenderGraphObject@@Qt_6_PRIVATE_API
libQt6Quick3D.so.6:_ZN20QQuick3DSceneManager7preSyncEv@@Qt_6_PRIVATE_API
libQt6Quick3D.so.6:_ZN20QQuick3DSceneManager9dirtyItemEP14QQuick3DObject@@Qt_6_PRIVATE_API
libQt6Quick3D.so.6:_ZN20QQuick3DSceneManager9setWindowEP12QQuickWindow@@Qt_6_PRIVATE_API
libQt6Quick3D.so.6:_ZN20QQuick3DSceneManagerC1EP7QObject@@Qt_6_PRIVATE_API
libQt6Quick3D.so.6:_ZN20QQuick3DSceneManagerC2EP7QObject@@Qt_6_PRIVATE_API
libQt6Quick3D.so.6:_ZN20QQuick3DSceneManagerD0Ev@@Qt_6_PRIVATE_API
libQt6Quick3D.so.6:_ZN20QQuick3DSceneManagerD1Ev@@Qt_6_PRIVATE_API
libQt6Quick3D.so.6:_ZN20QQuick3DSceneManagerD2Ev@@Qt_6_PRIVATE_API
libQt6Quick3D.so.6:_ZN21QQuick3DAbstractLight11qt_metacallEN11QMetaObject4CallEiPPv@@Qt_6_PRIVATE_API
libQt6Quick3D.so.6:_ZN21QQuick3DAbstractLight11qt_metacastEPKc@@Qt_6_PRIVATE_API
libQt6Quick3D.so.6:_ZN21QQuick3DAbstractLight11setBakeModeENS_12QSSGBakeModeE@@Qt_6_PRIVATE_API
libQt6Quick3D.so.6:_ZN21QQuick3DAbstractLight12colorChangedEv@@Qt_6_PRIVATE_API
libQt6Quick3D.so.6:_ZN21QQuick3DAbstractLight12markAllDirtyEv@@Qt_6_PRIVATE_API
libQt6Quick3D.so.6:_ZN21QQuick3DAbstractLight12scopeChangedEv@@Qt_6_PRIVATE_API
libQt6Quick3D.so.6:_ZN21QQuick3DAbstractLight13setBrightnessEf@@Qt_6_PRIVATE_API
libQt6Quick3D.so.6:_ZN21QQuick3DAbstractLight13setShadowBiasEf@@Qt_6_PRIVATE_API
libQt6Quick3D.so.6:_ZN21QQuick3DAbstractLight14setCastsShadowEb@@Qt_6_PRIVATE_API
libQt6Quick3D.so.6:_ZN21QQuick3DAbstractLight15bakeModeChangedEv@@Qt_6_PRIVATE_API
libQt6Quick3D.so.6:_ZN21QQuick3DAbstractLight15setAmbientColorERK6QColor@@Qt_6_PRIVATE_API
libQt6Quick3D.so.6:_ZN21QQuick3DAbstractLight15setShadowFactorEf@@Qt_6_PRIVATE_API
libQt6Quick3D.so.6:_ZN21QQuick3DAbstractLight15setShadowFilterEf@@Qt_6_PRIVATE_API
libQt6Quick3D.so.6:_ZN21QQuick3DAbstractLight15setShadowMapFarEf@@Qt_6_PRIVATE_API
libQt6Quick3D.so.6:_ZN21QQuick3DAbstractLight17brightnessChangedEv@@Qt_6_PRIVATE_API
libQt6Quick3D.so.6:_ZN21QQuick3DAbstractLight17shadowBiasChangedEv@@Qt_6_PRIVATE_API
libQt6Quick3D.so.6:_ZN21QQuick3DAbstractLight17updateSpatialNodeEP21QSSGRenderGraphObject@@Qt_6_PRIVATE_API
libQt6Quick3D.so.6:_ZN21QQuick3DAbstractLight18castsShadowChangedEv@@Qt_6_PRIVATE_API
libQt6Quick3D.so.6:_ZN21QQuick3DAbstractLight19ambientColorChangedEv@@Qt_6_PRIVATE_API
libQt6Quick3D.so.6:_ZN21QQuick3DAbstractLight19setShadowMapQualityENS_20QSSGShadowMapQualityE@@Qt_6_PRIVATE_API
libQt6Quick3D.so.6:_ZN21QQuick3DAbstractLight19shadowFactorChangedEv@@Qt_6_PRIVATE_API
libQt6Quick3D.so.6:_ZN21QQuick3DAbstractLight19shadowFilterChangedEv@@Qt_6_PRIVATE_API
libQt6Quick3D.so.6:_ZN21QQuick3DAbstractLight19shadowMapFarChangedEv@@Qt_6_PRIVATE_API
libQt6Quick3D.so.6:_ZN21QQuick3DAbstractLight21mapToShadowResolutionENS_20QSSGShadowMapQualityE@@Qt_6_PRIVATE_API
libQt6Quick3D.so.6:_ZN21QQuick3DAbstractLight23shadowMapQualityChangedEv@@Qt_6_PRIVATE_API
libQt6Quick3D.so.6:_ZN21QQuick3DAbstractLight8setColorERK6QColor@@Qt_6_PRIVATE_API
libQt6Quick3D.so.6:_ZN21QQuick3DAbstractLight8setScopeEP12QQuick3DNode@@Qt_6_PRIVATE_API
libQt6Quick3D.so.6:_ZN21QQuick3DAbstractLightC1ER19QQuick3DNodePrivateP12QQuick3DNode@@Qt_6_PRIVATE_API
libQt6Quick3D.so.6:_ZN21QQuick3DAbstractLightC2ER19QQuick3DNodePrivateP12QQuick3DNode@@Qt_6_PRIVATE_API
libQt6Quick3D.so.6:_ZN21QQuick3DAbstractLightD0Ev@@Qt_6_PRIVATE_API
libQt6Quick3D.so.6:_ZN21QQuick3DAbstractLightD1Ev@@Qt_6_PRIVATE_API
libQt6Quick3D.so.6:_ZN21QQuick3DAbstractLightD2Ev@@Qt_6_PRIVATE_API
libQt6Quick3D.so.6:_ZN21QQuick3DBakedLightmap10keyChangedEv@@Qt_6_PRIVATE_API
libQt6Quick3D.so.6:_ZN21QQuick3DBakedLightmap10setEnabledEb@@Qt_6_PRIVATE_API
libQt6Quick3D.so.6:_ZN21QQuick3DBakedLightmap11qt_metacallEN11QMetaObject4CallEiPPv@@Qt_6_PRIVATE_API
libQt6Quick3D.so.6:_ZN21QQuick3DBakedLightmap11qt_metacastEPKc@@Qt_6_PRIVATE_API
libQt6Quick3D.so.6:_ZN21QQuick3DBakedLightmap13setLoadPrefixERK7QString@@Qt_6_PRIVATE_API
libQt6Quick3D.so.6:_ZN21QQuick3DBakedLightmap14enabledChangedEv@@Qt_6_PRIVATE_API
libQt6Quick3D.so.6:_ZN21QQuick3DBakedLightmap17loadPrefixChangedEv@@Qt_6_PRIVATE_API
libQt6Quick3D.so.6:_ZN21QQuick3DBakedLightmap6setKeyERK7QString@@Qt_6_PRIVATE_API
libQt6Quick3D.so.6:_ZN21QQuick3DBakedLightmap7changedEv@@Qt_6_PRIVATE_API
libQt6Quick3D.so.6:_ZN21QQuick3DDebugSettings11qt_metacallEN11QMetaObject4CallEiPPv@@Qt_6_PRIVATE_API
libQt6Quick3D.so.6:_ZN21QQuick3DDebugSettings11qt_metacastEPKc@@Qt_6_PRIVATE_API
libQt6Quick3D.so.6:_ZN21QQuick3DDebugSettings19setMaterialOverrideENS_25QQuick3DMaterialOverridesE@@Qt_6_PRIVATE_API
libQt6Quick3D.so.6:_ZN21QQuick3DDebugSettings19setWireframeEnabledEb@@Qt_6_PRIVATE_API
libQt6Quick3D.so.6:_ZN21QQuick3DDebugSettings23materialOverrideChangedEv@@Qt_6_PRIVATE_API
libQt6Quick3D.so.6:_ZN21QQuick3DDebugSettings23wireframeEnabledChangedEv@@Qt_6_PRIVATE_API
libQt6Quick3D.so.6:_ZN21QQuick3DDebugSettings6updateEv@@Qt_6_PRIVATE_API
libQt6Quick3D.so.6:_ZN21QQuick3DDebugSettings7changedEv@@Qt_6_PRIVATE_API
libQt6Quick3D.so.6:_ZN21QQuick3DDebugSettingsC1EP7QObject@@Qt_6_PRIVATE_API
libQt6Quick3D.so.6:_ZN21QQuick3DDebugSettingsC2EP7QObject@@Qt_6_PRIVATE_API
libQt6Quick3D.so.6:_ZN21QQuick3DFrustumCamera10topChangedEv@@Qt_6_PRIVATE_API
libQt6Quick3D.so.6:_ZN21QQuick3DFrustumCamera11leftChangedEv@@Qt_6_PRIVATE_API
libQt6Quick3D.so.6:_ZN21QQuick3DFrustumCamera11qt_metacallEN11QMetaObject4CallEiPPv@@Qt_6_PRIVATE_API
libQt6Quick3D.so.6:_ZN21QQuick3DFrustumCamera11qt_metacastEPKc@@Qt_6_PRIVATE_API
libQt6Quick3D.so.6:_ZN21QQuick3DFrustumCamera12rightChangedEv@@Qt_6_PRIVATE_API
libQt6Quick3D.so.6:_ZN21QQuick3DFrustumCamera13bottomChangedEv@@Qt_6_PRIVATE_API
libQt6Quick3D.so.6:_ZN21QQuick3DFrustumCamera17updateSpatialNodeEP21QSSGRenderGraphObject@@Qt_6_PRIVATE_API
libQt6Quick3D.so.6:_ZN21QQuick3DFrustumCamera6setTopEf@@Qt_6_PRIVATE_API
libQt6Quick3D.so.6:_ZN21QQuick3DFrustumCamera7setLeftEf@@Qt_6_PRIVATE_API
libQt6Quick3D.so.6:_ZN21QQuick3DFrustumCamera8setRightEf@@Qt_6_PRIVATE_API
libQt6Quick3D.so.6:_ZN21QQuick3DFrustumCamera9setBottomEf@@Qt_6_PRIVATE_API
libQt6Quick3D.so.6:_ZN21QQuick3DFrustumCameraC1EP12QQuick3DNode@@Qt_6_PRIVATE_API
libQt6Quick3D.so.6:_ZN21QQuick3DFrustumCameraC2EP12QQuick3DNode@@Qt_6_PRIVATE_API
libQt6Quick3D.so.6:_ZN21QQuick3DLightmapBaker10updateViewEv@@Qt_6_PRIVATE_API
libQt6Quick3D.so.6:_ZN21QQuick3DLightmapBaker11qt_metacallEN11QMetaObject4CallEiPPv@@Qt_6_PRIVATE_API
libQt6Quick3D.so.6:_ZN21QQuick3DLightmapBaker11qt_metacastEPKc@@Qt_6_PRIVATE_API
libQt6Quick3D.so.6:_ZN21QQuick3DLightmapBaker13BakingControl13requestCancelEv@@Qt_6_PRIVATE_API
libQt6Quick3D.so.6:_ZN21QQuick3DLightmapBaker13BakingControl5resetEv@@Qt_6_PRIVATE_API
libQt6Quick3D.so.6:_ZN21QQuick3DLightmapBaker17onLmWindowClosingEP16QQuickCloseEvent@@Qt_6_PRIVATE_API
libQt6Quick3D.so.6:_ZN21QQuick3DLightmapBaker23onLmCancelButtonClickedEv@@Qt_6_PRIVATE_API
libQt6Quick3D.so.6:_ZN21QQuick3DLightmapBaker4bakeESt8functionIFvNS_12BakingStatusESt8optionalI7QStringEPNS_13BakingControlEEE@@Qt_6_PRIVATE_API
libQt6Quick3D.so.6:_ZN21QQuick3DLightmapBaker4bakeEv@@Qt_6_PRIVATE_API
libQt6Quick3D.so.6:_ZN21QQuick3DLightmapBakerC1EP16QQuick3DViewport@@Qt_6_PRIVATE_API
libQt6Quick3D.so.6:_ZN21QQuick3DLightmapBakerC2EP16QQuick3DViewport@@Qt_6_PRIVATE_API
libQt6Quick3D.so.6:_ZN21QQuick3DLightmapBakerD0Ev@@Qt_6_PRIVATE_API
libQt6Quick3D.so.6:_ZN21QQuick3DLightmapBakerD1Ev@@Qt_6_PRIVATE_API
libQt6Quick3D.so.6:_ZN21QQuick3DLightmapBakerD2Ev@@Qt_6_PRIVATE_API
libQt6Quick3D.so.6:_ZN21QQuick3DObjectPrivate10data_clearEP16QQmlListPropertyI7QObjectE@@Qt_6_PRIVATE_API
libQt6Quick3D.so.6:_ZN21QQuick3DObjectPrivate10data_countEP16QQmlListPropertyI7QObjectE@@Qt_6_PRIVATE_API
libQt6Quick3D.so.6:_ZN21QQuick3DObjectPrivate10itemChangeEN14QQuick3DObject10ItemChangeERKNS0_14ItemChangeDataE@@Qt_6_PRIVATE_API
libQt6Quick3D.so.6:_ZN21QQuick3DObjectPrivate11children_atEP16QQmlListPropertyI14QQuick3DObjectEx@@Qt_6_PRIVATE_API
libQt6Quick3D.so.6:_ZN21QQuick3DObjectPrivate11data_appendEP16QQmlListPropertyI7QObjectEPS1_@@Qt_6_PRIVATE_API
libQt6Quick3D.so.6:_ZN21QQuick3DObjectPrivate11removeChildEP14QQuick3DObject@@Qt_6_PRIVATE_API
libQt6Quick3D.so.6:_ZN21QQuick3DObjectPrivate11transitionsEv@@Qt_6_PRIVATE_API
libQt6Quick3D.so.6:_ZN21QQuick3DObjectPrivate12resources_atEP16QQmlListPropertyI7QObjectEx@@Qt_6_PRIVATE_API
libQt6Quick3D.so.6:_ZN21QQuick3DObjectPrivate14addToDirtyListEv@@Qt_6_PRIVATE_API
libQt6Quick3D.so.6:_ZN21QQuick3DObjectPrivate14children_clearEP16QQmlListPropertyI14QQuick3DObjectE@@Qt_6_PRIVATE_API
libQt6Quick3D.so.6:_ZN21QQuick3DObjectPrivate14children_countEP16QQmlListPropertyI14QQuick3DObjectE@@Qt_6_PRIVATE_API
libQt6Quick3D.so.6:_ZN21QQuick3DObjectPrivate15children_appendEP16QQmlListPropertyI14QQuick3DObjectEPS1_@@Qt_6_PRIVATE_API
libQt6Quick3D.so.6:_ZN21QQuick3DObjectPrivate15refSceneManagerER20QQuick3DSceneManager@@Qt_6_PRIVATE_API
libQt6Quick3D.so.6:_ZN21QQuick3DObjectPrivate15resources_clearEP16QQmlListPropertyI7QObjectE@@Qt_6_PRIVATE_API
libQt6Quick3D.so.6:_ZN21QQuick3DObjectPrivate15resources_countEP16QQmlListPropertyI7QObjectE@@Qt_6_PRIVATE_API
libQt6Quick3D.so.6:_ZN21QQuick3DObjectPrivate16resources_appendEP16QQmlListPropertyI7QObjectEPS1_@@Qt_6_PRIVATE_API
libQt6Quick3D.so.6:_ZN21QQuick3DObjectPrivate17derefSceneManagerEv@@Qt_6_PRIVATE_API
libQt6Quick3D.so.6:_ZN21QQuick3DObjectPrivate18_q_createJSWrapperEPN3QV415ExecutionEngineE@@Qt_6_PRIVATE_API
libQt6Quick3D.so.6:_ZN21QQuick3DObjectPrivate18updateSubFocusItemEP14QQuick3DObjectb@@Qt_6_PRIVATE_API
libQt6Quick3D.so.6:_ZN21QQuick3DObjectPrivate19removeFromDirtyListEv@@Qt_6_PRIVATE_API
libQt6Quick3D.so.6:_ZN21QQuick3DObjectPrivate19siblingOrderChangedEv@@Qt_6_PRIVATE_API
libQt6Quick3D.so.6:_ZN21QQuick3DObjectPrivate21addItemChangeListenerEP28QQuick3DObjectChangeListener6QFlagsINS_10ChangeTypeEE@@Qt_6_PRIVATE_API
libQt6Quick3D.so.6:_ZN21QQuick3DObjectPrivate23_q_cleanupContentItem2DEv@@Qt_6_PRIVATE_API
libQt6Quick3D.so.6:_ZN21QQuick3DObjectPrivate24_q_resourceObjectDeletedEP7QObject@@Qt_6_PRIVATE_API
libQt6Quick3D.so.6:_ZN21QQuick3DObjectPrivate24removeItemChangeListenerEP28QQuick3DObjectChangeListener6QFlagsINS_10ChangeTypeEE@@Qt_6_PRIVATE_API
libQt6Quick3D.so.6:_ZN21QQuick3DObjectPrivate29updateOrAddItemChangeListenerEP28QQuick3DObjectChangeListener6QFlagsINS_10ChangeTypeEE@@Qt_6_PRIVATE_API
libQt6Quick3D.so.6:_ZN21QQuick3DObjectPrivate4dataEv@@Qt_6_PRIVATE_API
libQt6Quick3D.so.6:_ZN21QQuick3DObjectPrivate4initEP14QQuick3DObject@@Qt_6_PRIVATE_API
libQt6Quick3D.so.6:_ZN21QQuick3DObjectPrivate5dirtyENS_9DirtyTypeE@@Qt_6_PRIVATE_API
libQt6Quick3D.so.6:_ZN21QQuick3DObjectPrivate6statesEv@@Qt_6_PRIVATE_API
libQt6Quick3D.so.6:_ZN21QQuick3DObjectPrivate7_statesEv@@Qt_6_PRIVATE_API
libQt6Quick3D.so.6:_ZN21QQuick3DObjectPrivate7data_atEP16QQmlListPropertyI7QObjectEx@@Qt_6_PRIVATE_API
libQt6Quick3D.so.6:_ZN21QQuick3DObjectPrivate8addChildEP14QQuick3DObject@@Qt_6_PRIVATE_API
libQt6Quick3D.so.6:_ZN21QQuick3DObjectPrivate8childrenEv@@Qt_6_PRIVATE_API
libQt6Quick3D.so.6:_ZN21QQuick3DObjectPrivate8setStateERK7QString@@Qt_6_PRIVATE_API
libQt6Quick3D.so.6:_ZN21QQuick3DObjectPrivate9ExtraDataC1Ev@@Qt_6_PRIVATE_API
libQt6Quick3D.so.6:_ZN21QQuick3DObjectPrivate9ExtraDataC2Ev@@Qt_6_PRIVATE_API
libQt6Quick3D.so.6:_ZN21QQuick3DObjectPrivate9resourcesEv@@Qt_6_PRIVATE_API
libQt6Quick3D.so.6:_ZN21QQuick3DObjectPrivate9setCulledEb@@Qt_6_PRIVATE_API
libQt6Quick3D.so.6:_ZN21QQuick3DObjectPrivateC1EN21QSSGRenderGraphObject4TypeE@@Qt_6_PRIVATE_API
libQt6Quick3D.so.6:_ZN21QQuick3DObjectPrivateC2EN21QSSGRenderGraphObject4TypeE@@Qt_6_PRIVATE_API
libQt6Quick3D.so.6:_ZN21QQuick3DObjectPrivateD0Ev@@Qt_6_PRIVATE_API
libQt6Quick3D.so.6:_ZN21QQuick3DObjectPrivateD1Ev@@Qt_6_PRIVATE_API
libQt6Quick3D.so.6:_ZN21QQuick3DObjectPrivateD2Ev@@Qt_6_PRIVATE_API
libQt6Quick3D.so.6:_ZN22QQuick3DCubeMapTexture11qt_metacallEN11QMetaObject4CallEiPPv@@Qt_6_PRIVATE_API
libQt6Quick3D.so.6:_ZN22QQuick3DCubeMapTexture11qt_metacastEPKc@@Qt_6_PRIVATE_API
libQt6Quick3D.so.6:_ZN22QQuick3DCubeMapTextureC1EP14QQuick3DObject@@Qt_6_PRIVATE_API
libQt6Quick3D.so.6:_ZN22QQuick3DCubeMapTextureC2EP14QQuick3DObject@@Qt_6_PRIVATE_API
libQt6Quick3D.so.6:_ZN22QQuick3DCubeMapTextureD0Ev@@Qt_6_PRIVATE_API
libQt6Quick3D.so.6:_ZN22QQuick3DCubeMapTextureD1Ev@@Qt_6_PRIVATE_API
libQt6Quick3D.so.6:_ZN22QQuick3DCubeMapTextureD2Ev@@Qt_6_PRIVATE_API
libQt6Quick3D.so.6:_ZN22QQuick3DCustomMaterial10itemChangeEN14QQuick3DObject10ItemChangeERKNS0_14ItemChangeDataE@@Qt_6_PRIVATE_API
libQt6Quick3D.so.6:_ZN22QQuick3DCustomMaterial11qt_metacallEN11QMetaObject4CallEiPPv@@Qt_6_PRIVATE_API
libQt6Quick3D.so.6:_ZN22QQuick3DCustomMaterial11qt_metacastEPKc@@Qt_6_PRIVATE_API
libQt6Quick3D.so.6:_ZN22QQuick3DCustomMaterial11setDstBlendENS_9BlendModeE@@Qt_6_PRIVATE_API
libQt6Quick3D.so.6:_ZN22QQuick3DCustomMaterial11setSrcBlendENS_9BlendModeE@@Qt_6_PRIVATE_API
libQt6Quick3D.so.6:_ZN22QQuick3DCustomMaterial12markAllDirtyEv@@Qt_6_PRIVATE_API
libQt6Quick3D.so.6:_ZN22QQuick3DCustomMaterial12setLineWidthEf@@Qt_6_PRIVATE_API
libQt6Quick3D.so.6:_ZN22QQuick3DCustomMaterial14onTextureDirtyEv@@Qt_6_PRIVATE_API
libQt6Quick3D.so.6:_ZN22QQuick3DCustomMaterial14setAlwaysDirtyEb@@Qt_6_PRIVATE_API
libQt6Quick3D.so.6:_ZN22QQuick3DCustomMaterial14setShadingModeENS_11ShadingModeE@@Qt_6_PRIVATE_API
libQt6Quick3D.so.6:_ZN22QQuick3DCustomMaterial15dstBlendChangedEv@@Qt_6_PRIVATE_API
libQt6Quick3D.so.6:_ZN22QQuick3DCustomMaterial15onPropertyDirtyEv@@Qt_6_PRIVATE_API
libQt6Quick3D.so.6:_ZN22QQuick3DCustomMaterial15setVertexShaderERK4QUrl@@Qt_6_PRIVATE_API
libQt6Quick3D.so.6:_ZN22QQuick3DCustomMaterial15srcBlendChangedEv@@Qt_6_PRIVATE_API
libQt6Quick3D.so.6:_ZN22QQuick3DCustomMaterial16lineWidthChangedEv@@Qt_6_PRIVATE_API
libQt6Quick3D.so.6:_ZN22QQuick3DCustomMaterial16setDstAlphaBlendENS_9BlendModeE@@Qt_6_PRIVATE_API
libQt6Quick3D.so.6:_ZN22QQuick3DCustomMaterial16setSrcAlphaBlendENS_9BlendModeE@@Qt_6_PRIVATE_API
libQt6Quick3D.so.6:_ZN22QQuick3DCustomMaterial17setFragmentShaderERK4QUrl@@Qt_6_PRIVATE_API
libQt6Quick3D.so.6:_ZN22QQuick3DCustomMaterial17updateSpatialNodeEP21QSSGRenderGraphObject@@Qt_6_PRIVATE_API
libQt6Quick3D.so.6:_ZN22QQuick3DCustomMaterial18alwaysDirtyChangedEv@@Qt_6_PRIVATE_API
libQt6Quick3D.so.6:_ZN22QQuick3DCustomMaterial18shadingModeChangedEv@@Qt_6_PRIVATE_API
libQt6Quick3D.so.6:_ZN22QQuick3DCustomMaterial19vertexShaderChangedEv@@Qt_6_PRIVATE_API
libQt6Quick3D.so.6:_ZN22QQuick3DCustomMaterial20dstAlphaBlendChangedEv@@Qt_6_PRIVATE_API
libQt6Quick3D.so.6:_ZN22QQuick3DCustomMaterial20setDynamicTextureMapEP31QQuick3DShaderUtilsTextureInput@@Qt_6_PRIVATE_API
libQt6Quick3D.so.6:_ZN22QQuick3DCustomMaterial20srcAlphaBlendChangedEv@@Qt_6_PRIVATE_API
libQt6Quick3D.so.6:_ZN22QQuick3DCustomMaterial21fragmentShaderChangedEv@@Qt_6_PRIVATE_API
libQt6Quick3D.so.6:_ZN22QQuick3DCustomMaterial9markDirtyERS_NS_5DirtyE@@Qt_6_PRIVATE_API
libQt6Quick3D.so.6:_ZN22QQuick3DCustomMaterialC1EP14QQuick3DObject@@Qt_6_PRIVATE_API
libQt6Quick3D.so.6:_ZN22QQuick3DCustomMaterialC2EP14QQuick3DObject@@Qt_6_PRIVATE_API
libQt6Quick3D.so.6:_ZN22QQuick3DCustomMaterialD0Ev@@Qt_6_PRIVATE_API
libQt6Quick3D.so.6:_ZN22QQuick3DCustomMaterialD1Ev@@Qt_6_PRIVATE_API
libQt6Quick3D.so.6:_ZN22QQuick3DCustomMaterialD2Ev@@Qt_6_PRIVATE_API
libQt6Quick3D.so.6:_ZN22QQuick3DFileInstancing11qt_metacallEN11QMetaObject4CallEiPPv@@Qt_6_PRIVATE_API
libQt6Quick3D.so.6:_ZN22QQuick3DFileInstancing11qt_metacastEPKc@@Qt_6_PRIVATE_API
libQt6Quick3D.so.6:_ZN22QQuick3DFileInstancing12loadFromFileERK4QUrl@@Qt_6_PRIVATE_API
libQt6Quick3D.so.6:_ZN22QQuick3DFileInstancing13sourceChangedEv@@Qt_6_PRIVATE_API
libQt6Quick3D.so.6:_ZN22QQuick3DFileInstancing15loadFromXmlFileERK7QString@@Qt_6_PRIVATE_API
libQt6Quick3D.so.6:_ZN22QQuick3DFileInstancing17getInstanceBufferEPi@@Qt_6_PRIVATE_API
libQt6Quick3D.so.6:_ZN22QQuick3DFileInstancing17writeToBinaryFileEP9QIODevice@@Qt_6_PRIVATE_API
libQt6Quick3D.so.6:_ZN22QQuick3DFileInstancing18loadFromBinaryFileERK7QString@@Qt_6_PRIVATE_API
libQt6Quick3D.so.6:_ZN22QQuick3DFileInstancing20instanceCountChangedEv@@Qt_6_PRIVATE_API
libQt6Quick3D.so.6:_ZN22QQuick3DFileInstancing9setSourceERK4QUrl@@Qt_6_PRIVATE_API
libQt6Quick3D.so.6:_ZN22QQuick3DFileInstancingC1EP14QQuick3DObject@@Qt_6_PRIVATE_API
libQt6Quick3D.so.6:_ZN22QQuick3DFileInstancingC2EP14QQuick3DObject@@Qt_6_PRIVATE_API
libQt6Quick3D.so.6:_ZN22QQuick3DFileInstancingD0Ev@@Qt_6_PRIVATE_API
libQt6Quick3D.so.6:_ZN22QQuick3DFileInstancingD1Ev@@Qt_6_PRIVATE_API
libQt6Quick3D.so.6:_ZN22QQuick3DFileInstancingD2Ev@@Qt_6_PRIVATE_API
libQt6Quick3D.so.6:_ZN22QQuick3DResourceLoader10geometriesEv@@Qt_6_PRIVATE_API
libQt6Quick3D.so.6:_ZN22QQuick3DResourceLoader10itemChangeEN14QQuick3DObject10ItemChangeERKNS0_14ItemChangeDataE@@Qt_6_PRIVATE_API
libQt6Quick3D.so.6:_ZN22QQuick3DResourceLoader11qt_metacallEN11QMetaObject4CallEiPPv@@Qt_6_PRIVATE_API
libQt6Quick3D.so.6:_ZN22QQuick3DResourceLoader11qt_metacastEPKc@@Qt_6_PRIVATE_API
libQt6Quick3D.so.6:_ZN22QQuick3DResourceLoader12markAllDirtyEv@@Qt_6_PRIVATE_API
libQt6Quick3D.so.6:_ZN22QQuick3DResourceLoader12qmlTextureAtEP16QQmlListPropertyI15QQuick3DTextureEx@@Qt_6_PRIVATE_API
libQt6Quick3D.so.6:_ZN22QQuick3DResourceLoader13qmlGeometryAtEP16QQmlListPropertyI16QQuick3DGeometryEx@@Qt_6_PRIVATE_API
libQt6Quick3D.so.6:_ZN22QQuick3DResourceLoader14setMeshSourcesERK5QListI4QUrlE@@Qt_6_PRIVATE_API
libQt6Quick3D.so.6:_ZN22QQuick3DResourceLoader16qmlAppendTextureEP16QQmlListPropertyI15QQuick3DTextureEPS1_@@Qt_6_PRIVATE_API
libQt6Quick3D.so.6:_ZN22QQuick3DResourceLoader16qmlClearTexturesEP16QQmlListPropertyI15QQuick3DTextureE@@Qt_6_PRIVATE_API
libQt6Quick3D.so.6:_ZN22QQuick3DResourceLoader16qmlTexturesCountEP16QQmlListPropertyI15QQuick3DTextureE@@Qt_6_PRIVATE_API
libQt6Quick3D.so.6:_ZN22QQuick3DResourceLoader17qmlAppendGeometryEP16QQmlListPropertyI16QQuick3DGeometryEPS1_@@Qt_6_PRIVATE_API
libQt6Quick3D.so.6:_ZN22QQuick3DResourceLoader17updateSpatialNodeEP21QSSGRenderGraphObject@@Qt_6_PRIVATE_API
libQt6Quick3D.so.6:_ZN22QQuick3DResourceLoader18meshSourcesChangedEv@@Qt_6_PRIVATE_API
libQt6Quick3D.so.6:_ZN22QQuick3DResourceLoader18onTextureDestroyedEP7QObject@@Qt_6_PRIVATE_API
libQt6Quick3D.so.6:_ZN22QQuick3DResourceLoader18qmlClearGeometriesEP16QQmlListPropertyI16QQuick3DGeometryE@@Qt_6_PRIVATE_API
libQt6Quick3D.so.6:_ZN22QQuick3DResourceLoader18qmlGeometriesCountEP16QQmlListPropertyI16QQuick3DGeometryE@@Qt_6_PRIVATE_API
libQt6Quick3D.so.6:_ZN22QQuick3DResourceLoader18updateSceneManagerEP20QQuick3DSceneManager@@Qt_6_PRIVATE_API
libQt6Quick3D.so.6:_ZN22QQuick3DResourceLoader19onGeometryDestroyedEP7QObject@@Qt_6_PRIVATE_API
libQt6Quick3D.so.6:_ZN22QQuick3DResourceLoader8texturesEv@@Qt_6_PRIVATE_API
libQt6Quick3D.so.6:_ZN22QQuick3DResourceLoader9markDirtyENS_23ResourceLoaderDirtyTypeE@@Qt_6_PRIVATE_API
libQt6Quick3D.so.6:_ZN22QQuick3DResourceLoaderC1EP14QQuick3DObject@@Qt_6_PRIVATE_API
libQt6Quick3D.so.6:_ZN22QQuick3DResourceLoaderC2EP14QQuick3DObject@@Qt_6_PRIVATE_API
libQt6Quick3D.so.6:_ZN23QQuick3DDefaultMaterial10itemChangeEN14QQuick3DObject10ItemChangeERKNS0_14ItemChangeDataE@@Qt_6_PRIVATE_API
libQt6Quick3D.so.6:_ZN23QQuick3DDefaultMaterial10setBumpMapEP15QQuick3DTexture@@Qt_6_PRIVATE_API
libQt6Quick3D.so.6:_ZN23QQuick3DDefaultMaterial10setOpacityEf@@Qt_6_PRIVATE_API
libQt6Quick3D.so.6:_ZN23QQuick3DDefaultMaterial11qt_metacallEN11QMetaObject4CallEiPPv@@Qt_6_PRIVATE_API
libQt6Quick3D.so.6:_ZN23QQuick3DDefaultMaterial11qt_metacastEPKc@@Qt_6_PRIVATE_API
libQt6Quick3D.so.6:_ZN23QQuick3DDefaultMaterial11setLightingENS_8LightingE@@Qt_6_PRIVATE_API
libQt6Quick3D.so.6:_ZN23QQuick3DDefaultMaterial12markAllDirtyEv@@Qt_6_PRIVATE_API
libQt6Quick3D.so.6:_ZN23QQuick3DDefaultMaterial12setBlendModeENS_9BlendModeE@@Qt_6_PRIVATE_API
libQt6Quick3D.so.6:_ZN23QQuick3DDefaultMaterial12setLineWidthEf@@Qt_6_PRIVATE_API
libQt6Quick3D.so.6:_ZN23QQuick3DDefaultMaterial12setNormalMapEP15QQuick3DTexture@@Qt_6_PRIVATE_API
libQt6Quick3D.so.6:_ZN23QQuick3DDefaultMaterial12setPointSizeEf@@Qt_6_PRIVATE_API
libQt6Quick3D.so.6:_ZN23QQuick3DDefaultMaterial13setBumpAmountEf@@Qt_6_PRIVATE_API
libQt6Quick3D.so.6:_ZN23QQuick3DDefaultMaterial13setDiffuseMapEP15QQuick3DTexture@@Qt_6_PRIVATE_API
libQt6Quick3D.so.6:_ZN23QQuick3DDefaultMaterial13setOpacityMapEP15QQuick3DTexture@@Qt_6_PRIVATE_API
libQt6Quick3D.so.6:_ZN23QQuick3DDefaultMaterial14bumpMapChangedEP15QQuick3DTexture@@Qt_6_PRIVATE_API
libQt6Quick3D.so.6:_ZN23QQuick3DDefaultMaterial14opacityChangedEf@@Qt_6_PRIVATE_API
libQt6Quick3D.so.6:_ZN23QQuick3DDefaultMaterial14setEmissiveMapEP15QQuick3DTexture@@Qt_6_PRIVATE_API
libQt6Quick3D.so.6:_ZN23QQuick3DDefaultMaterial14setSpecularMapEP15QQuick3DTexture@@Qt_6_PRIVATE_API
libQt6Quick3D.so.6:_ZN23QQuick3DDefaultMaterial15lightingChangedENS_8LightingE@@Qt_6_PRIVATE_API
libQt6Quick3D.so.6:_ZN23QQuick3DDefaultMaterial15setDiffuseColorE6QColor@@Qt_6_PRIVATE_API
libQt6Quick3D.so.6:_ZN23QQuick3DDefaultMaterial15setFresnelPowerEf@@Qt_6_PRIVATE_API
libQt6Quick3D.so.6:_ZN23QQuick3DDefaultMaterial15setRoughnessMapEP15QQuick3DTexture@@Qt_6_PRIVATE_API
libQt6Quick3D.so.6:_ZN23QQuick3DDefaultMaterial15setSpecularTintE6QColor@@Qt_6_PRIVATE_API
libQt6Quick3D.so.6:_ZN23QQuick3DDefaultMaterial16blendModeChangedENS_9BlendModeE@@Qt_6_PRIVATE_API
libQt6Quick3D.so.6:_ZN23QQuick3DDefaultMaterial16lineWidthChangedEv@@Qt_6_PRIVATE_API
libQt6Quick3D.so.6:_ZN23QQuick3DDefaultMaterial16normalMapChangedEP15QQuick3DTexture@@Qt_6_PRIVATE_API
libQt6Quick3D.so.6:_ZN23QQuick3DDefaultMaterial16pointSizeChangedEv@@Qt_6_PRIVATE_API
libQt6Quick3D.so.6:_ZN23QQuick3DDefaultMaterial16setSpecularModelENS_13SpecularModelE@@Qt_6_PRIVATE_API
libQt6Quick3D.so.6:_ZN23QQuick3DDefaultMaterial17bumpAmountChangedEf@@Qt_6_PRIVATE_API
libQt6Quick3D.so.6:_ZN23QQuick3DDefaultMaterial17diffuseMapChangedEP15QQuick3DTexture@@Qt_6_PRIVATE_API
libQt6Quick3D.so.6:_ZN23QQuick3DDefaultMaterial17opacityMapChangedEP15QQuick3DTexture@@Qt_6_PRIVATE_API
libQt6Quick3D.so.6:_ZN23QQuick3DDefaultMaterial17setEmissiveFactorE9QVector3D@@Qt_6_PRIVATE_API
libQt6Quick3D.so.6:_ZN23QQuick3DDefaultMaterial17setOpacityChannelEN16QQuick3DMaterial21TextureChannelMappingE@@Qt_6_PRIVATE_API
libQt6Quick3D.so.6:_ZN23QQuick3DDefaultMaterial17setSpecularAmountEf@@Qt_6_PRIVATE_API
libQt6Quick3D.so.6:_ZN23QQuick3DDefaultMaterial17updateSpatialNodeEP21QSSGRenderGraphObject@@Qt_6_PRIVATE_API
libQt6Quick3D.so.6:_ZN23QQuick3DDefaultMaterial18emissiveMapChangedEP15QQuick3DTexture@@Qt_6_PRIVATE_API
libQt6Quick3D.so.6:_ZN23QQuick3DDefaultMaterial18setTranslucencyMapEP15QQuick3DTexture@@Qt_6_PRIVATE_API
libQt6Quick3D.so.6:_ZN23QQuick3DDefaultMaterial18specularMapChangedEP15QQuick3DTexture@@Qt_6_PRIVATE_API
libQt6Quick3D.so.6:_ZN23QQuick3DDefaultMaterial18updateSceneManagerEP20QQuick3DSceneManager@@Qt_6_PRIVATE_API
libQt6Quick3D.so.6:_ZN23QQuick3DDefaultMaterial19diffuseColorChangedE6QColor@@Qt_6_PRIVATE_API
libQt6Quick3D.so.6:_ZN23QQuick3DDefaultMaterial19fresnelPowerChangedEf@@Qt_6_PRIVATE_API
libQt6Quick3D.so.6:_ZN23QQuick3DDefaultMaterial19roughnessMapChangedEP15QQuick3DTexture@@Qt_6_PRIVATE_API
libQt6Quick3D.so.6:_ZN23QQuick3DDefaultMaterial19setDiffuseLightWrapEf@@Qt_6_PRIVATE_API
libQt6Quick3D.so.6:_ZN23QQuick3DDefaultMaterial19setRoughnessChannelEN16QQuick3DMaterial21TextureChannelMappingE@@Qt_6_PRIVATE_API
libQt6Quick3D.so.6:_ZN23QQuick3DDefaultMaterial19specularTintChangedE6QColor@@Qt_6_PRIVATE_API
libQt6Quick3D.so.6:_ZN23QQuick3DDefaultMaterial20setIndexOfRefractionEf@@Qt_6_PRIVATE_API
libQt6Quick3D.so.6:_ZN23QQuick3DDefaultMaterial20setSpecularRoughnessEf@@Qt_6_PRIVATE_API
libQt6Quick3D.so.6:_ZN23QQuick3DDefaultMaterial20specularModelChangedENS_13SpecularModelE@@Qt_6_PRIVATE_API
libQt6Quick3D.so.6:_ZN23QQuick3DDefaultMaterial21emissiveFactorChangedE9QVector3D@@Qt_6_PRIVATE_API
libQt6Quick3D.so.6:_ZN23QQuick3DDefaultMaterial21opacityChannelChangedEN16QQuick3DMaterial21TextureChannelMappingE@@Qt_6_PRIVATE_API
libQt6Quick3D.so.6:_ZN23QQuick3DDefaultMaterial21setTranslucentFalloffEf@@Qt_6_PRIVATE_API
libQt6Quick3D.so.6:_ZN23QQuick3DDefaultMaterial21specularAmountChangedEf@@Qt_6_PRIVATE_API
libQt6Quick3D.so.6:_ZN23QQuick3DDefaultMaterial22setTranslucencyChannelEN16QQuick3DMaterial21TextureChannelMappingE@@Qt_6_PRIVATE_API
libQt6Quick3D.so.6:_ZN23QQuick3DDefaultMaterial22setVertexColorsEnabledEb@@Qt_6_PRIVATE_API
libQt6Quick3D.so.6:_ZN23QQuick3DDefaultMaterial22translucencyMapChangedEP15QQuick3DTexture@@Qt_6_PRIVATE_API
libQt6Quick3D.so.6:_ZN23QQuick3DDefaultMaterial23diffuseLightWrapChangedEf@@Qt_6_PRIVATE_API
libQt6Quick3D.so.6:_ZN23QQuick3DDefaultMaterial23roughnessChannelChangedEN16QQuick3DMaterial21TextureChannelMappingE@@Qt_6_PRIVATE_API
libQt6Quick3D.so.6:_ZN23QQuick3DDefaultMaterial24indexOfRefractionChangedEf@@Qt_6_PRIVATE_API
libQt6Quick3D.so.6:_ZN23QQuick3DDefaultMaterial24setSpecularReflectionMapEP15QQuick3DTexture@@Qt_6_PRIVATE_API
libQt6Quick3D.so.6:_ZN23QQuick3DDefaultMaterial24specularRoughnessChangedEf@@Qt_6_PRIVATE_API
libQt6Quick3D.so.6:_ZN23QQuick3DDefaultMaterial25translucentFalloffChangedEf@@Qt_6_PRIVATE_API
libQt6Quick3D.so.6:_ZN23QQuick3DDefaultMaterial26translucencyChannelChangedEN16QQuick3DMaterial21TextureChannelMappingE@@Qt_6_PRIVATE_API
libQt6Quick3D.so.6:_ZN23QQuick3DDefaultMaterial26vertexColorsEnabledChangedEb@@Qt_6_PRIVATE_API
libQt6Quick3D.so.6:_ZN23QQuick3DDefaultMaterial28specularReflectionMapChangedEP15QQuick3DTexture@@Qt_6_PRIVATE_API
libQt6Quick3D.so.6:_ZN23QQuick3DDefaultMaterial9markDirtyENS_9DirtyTypeE@@Qt_6_PRIVATE_API
libQt6Quick3D.so.6:_ZN23QQuick3DDefaultMaterialC1EP14QQuick3DObject@@Qt_6_PRIVATE_API
libQt6Quick3D.so.6:_ZN23QQuick3DDefaultMaterialC2EP14QQuick3DObject@@Qt_6_PRIVATE_API
libQt6Quick3D.so.6:_ZN23QQuick3DDefaultMaterialD0Ev@@Qt_6_PRIVATE_API
libQt6Quick3D.so.6:_ZN23QQuick3DDefaultMaterialD1Ev@@Qt_6_PRIVATE_API
libQt6Quick3D.so.6:_ZN23QQuick3DDefaultMaterialD2Ev@@Qt_6_PRIVATE_API
libQt6Quick3D.so.6:_ZN23QQuick3DGeometryPrivate15toComponentTypeE23QSSGRenderComponentType@@Qt_6_PRIVATE_API
libQt6Quick3D.so.6:_ZN23QQuick3DGeometryPrivate16semanticFromNameERK10QByteArray@@Qt_6_PRIVATE_API
libQt6Quick3D.so.6:_ZN23QQuick3DGeometryPrivateC1Ev@@Qt_6_PRIVATE_API
libQt6Quick3D.so.6:_ZN23QQuick3DGeometryPrivateC2Ev@@Qt_6_PRIVATE_API
libQt6Quick3D.so.6:_ZN23QQuick3DQuaternionUtils11qt_metacallEN11QMetaObject4CallEiPPv@@Qt_6_PRIVATE_API
libQt6Quick3D.so.6:_ZN23QQuick3DQuaternionUtils11qt_metacastEPKc@@Qt_6_PRIVATE_API
libQt6Quick3D.so.6:_ZN23QQuick3DQuaternionUtils15fromEulerAnglesERK9QVector3D@@Qt_6_PRIVATE_API
libQt6Quick3D.so.6:_ZN23QQuick3DQuaternionUtils15fromEulerAnglesEfff@@Qt_6_PRIVATE_API
libQt6Quick3D.so.6:_ZN23QQuick3DQuaternionUtils16fromAxisAndAngleERK9QVector3Df@@Qt_6_PRIVATE_API
libQt6Quick3D.so.6:_ZN23QQuick3DQuaternionUtils16fromAxisAndAngleEffff@@Qt_6_PRIVATE_API
libQt6Quick3D.so.6:_ZN23QQuick3DQuaternionUtils17fromAxesAndAnglesERK9QVector3DfS2_f@@Qt_6_PRIVATE_API
libQt6Quick3D.so.6:_ZN23QQuick3DQuaternionUtils17fromAxesAndAnglesERK9QVector3DfS2_fS2_f@@Qt_6_PRIVATE_API
libQt6Quick3D.so.6:_ZN23QQuick3DQuaternionUtils6lookAtERK9QVector3DS2_S2_S2_@@Qt_6_PRIVATE_API
libQt6Quick3D.so.6:_ZN23QQuick3DQuaternionUtilsC1EP7QObject@@Qt_6_PRIVATE_API
libQt6Quick3D.so.6:_ZN23QQuick3DQuaternionUtilsC2EP7QObject@@Qt_6_PRIVATE_API
libQt6Quick3D.so.6:_ZN23QQuick3DReflectionProbe10itemChangeEN14QQuick3DObject10ItemChangeERKNS0_14ItemChangeDataE@@Qt_6_PRIVATE_API
libQt6Quick3D.so.6:_ZN23QQuick3DReflectionProbe10setBoxSizeERK9QVector3D@@Qt_6_PRIVATE_API
libQt6Quick3D.so.6:_ZN23QQuick3DReflectionProbe10setQualityENS_17ReflectionQualityE@@Qt_6_PRIVATE_API
libQt6Quick3D.so.6:_ZN23QQuick3DReflectionProbe10setTextureEP22QQuick3DCubeMapTexture@@Qt_6_PRIVATE_API
libQt6Quick3D.so.6:_ZN23QQuick3DReflectionProbe11qt_metacallEN11QMetaObject4CallEiPPv@@Qt_6_PRIVATE_API
libQt6Quick3D.so.6:_ZN23QQuick3DReflectionProbe11qt_metacastEPKc@@Qt_6_PRIVATE_API
libQt6Quick3D.so.6:_ZN23QQuick3DReflectionProbe12markAllDirtyEv@@Qt_6_PRIVATE_API
libQt6Quick3D.so.6:_ZN23QQuick3DReflectionProbe12setBoxOffsetERK9QVector3D@@Qt_6_PRIVATE_API
libQt6Quick3D.so.6:_ZN23QQuick3DReflectionProbe12setDebugViewEb@@Qt_6_PRIVATE_API
libQt6Quick3D.so.6:_ZN23QQuick3DReflectionProbe13findSceneViewEv@@Qt_6_PRIVATE_API
libQt6Quick3D.so.6:_ZN23QQuick3DReflectionProbe13setClearColorERK6QColor@@Qt_6_PRIVATE_API
libQt6Quick3D.so.6:_ZN23QQuick3DReflectionProbe14boxSizeChangedEv@@Qt_6_PRIVATE_API
libQt6Quick3D.so.6:_ZN23QQuick3DReflectionProbe14qualityChangedEv@@Qt_6_PRIVATE_API
libQt6Quick3D.so.6:_ZN23QQuick3DReflectionProbe14scheduleUpdateEv@@Qt_6_PRIVATE_API
libQt6Quick3D.so.6:_ZN23QQuick3DReflectionProbe14setRefreshModeENS_21ReflectionRefreshModeE@@Qt_6_PRIVATE_API
libQt6Quick3D.so.6:_ZN23QQuick3DReflectionProbe14setTimeSlicingENS_21ReflectionTimeSlicingE@@Qt_6_PRIVATE_API
libQt6Quick3D.so.6:_ZN23QQuick3DReflectionProbe14textureChangedEv@@Qt_6_PRIVATE_API
libQt6Quick3D.so.6:_ZN23QQuick3DReflectionProbe15createDebugViewEv@@Qt_6_PRIVATE_API
libQt6Quick3D.so.6:_ZN23QQuick3DReflectionProbe15updateDebugViewEv@@Qt_6_PRIVATE_API
libQt6Quick3D.so.6:_ZN23QQuick3DReflectionProbe16boxOffsetChangedEv@@Qt_6_PRIVATE_API
libQt6Quick3D.so.6:_ZN23QQuick3DReflectionProbe16debugViewChangedEv@@Qt_6_PRIVATE_API
libQt6Quick3D.so.6:_ZN23QQuick3DReflectionProbe17clearColorChangedEv@@Qt_6_PRIVATE_API
libQt6Quick3D.so.6:_ZN23QQuick3DReflectionProbe17updateSpatialNodeEP21QSSGRenderGraphObject@@Qt_6_PRIVATE_API
libQt6Quick3D.so.6:_ZN23QQuick3DReflectionProbe18refreshModeChangedEv@@Qt_6_PRIVATE_API
libQt6Quick3D.so.6:_ZN23QQuick3DReflectionProbe18timeSlicingChangedEv@@Qt_6_PRIVATE_API
libQt6Quick3D.so.6:_ZN23QQuick3DReflectionProbe18updateSceneManagerEP20QQuick3DSceneManager@@Qt_6_PRIVATE_API
libQt6Quick3D.so.6:_ZN23QQuick3DReflectionProbe21setParallaxCorrectionEb@@Qt_6_PRIVATE_API
libQt6Quick3D.so.6:_ZN23QQuick3DReflectionProbe25mapToReflectionResolutionENS_17ReflectionQualityE@@Qt_6_PRIVATE_API
libQt6Quick3D.so.6:_ZN23QQuick3DReflectionProbe25parallaxCorrectionChangedEv@@Qt_6_PRIVATE_API
libQt6Quick3D.so.6:_ZN23QQuick3DReflectionProbeC1EP12QQuick3DNode@@Qt_6_PRIVATE_API
libQt6Quick3D.so.6:_ZN23QQuick3DReflectionProbeC2EP12QQuick3DNode@@Qt_6_PRIVATE_API
libQt6Quick3D.so.6:_ZN23QQuick3DRenderExtension11qt_metacallEN11QMetaObject4CallEiPPv@@Qt_6
libQt6Quick3D.so.6:_ZN23QQuick3DRenderExtension11qt_metacastEPKc@@Qt_6
libQt6Quick3D.so.6:_ZN23QQuick3DRenderExtensionC1EP14QQuick3DObject@@Qt_6
libQt6Quick3D.so.6:_ZN23QQuick3DRenderExtensionC2EP14QQuick3DObject@@Qt_6
libQt6Quick3D.so.6:_ZN23QQuick3DRenderExtensionD0Ev@@Qt_6
libQt6Quick3D.so.6:_ZN23QQuick3DRenderExtensionD1Ev@@Qt_6
libQt6Quick3D.so.6:_ZN23QQuick3DRenderExtensionD2Ev@@Qt_6
libQt6Quick3D.so.6:_ZN24QQuick3DDirectionalLight11qt_metacallEN11QMetaObject4CallEiPPv@@Qt_6_PRIVATE_API
libQt6Quick3D.so.6:_ZN24QQuick3DDirectionalLight11qt_metacastEPKc@@Qt_6_PRIVATE_API
libQt6Quick3D.so.6:_ZN24QQuick3DDirectionalLight17updateSpatialNodeEP21QSSGRenderGraphObject@@Qt_6_PRIVATE_API
libQt6Quick3D.so.6:_ZN24QQuick3DDirectionalLightC1EP12QQuick3DNode@@Qt_6_PRIVATE_API
libQt6Quick3D.so.6:_ZN24QQuick3DDirectionalLightC2EP12QQuick3DNode@@Qt_6_PRIVATE_API
libQt6Quick3D.so.6:_ZN24QQuick3DExtensionHelpers11getCameraIdERK14QQuick3DObject@@Qt_6_PRIVATE_API
libQt6Quick3D.so.6:_ZN24QQuick3DExtensionHelpers13getResourceIdERK14QQuick3DObject@@Qt_6_PRIVATE_API
libQt6Quick3D.so.6:_ZN24QQuick3DExtensionHelpers14getExtensionIdERK14QQuick3DObject@@Qt_6_PRIVATE_API
libQt6Quick3D.so.6:_ZN24QQuick3DExtensionHelpers9getNodeIdERK14QQuick3DObject@@Qt_6_PRIVATE_API
libQt6Quick3D.so.6:_ZN24QQuick3DExtensionHelpersC1Ev@@Qt_6_PRIVATE_API
libQt6Quick3D.so.6:_ZN24QQuick3DExtensionHelpersC2Ev@@Qt_6_PRIVATE_API
libQt6Quick3D.so.6:_ZN24QQuick3DSceneEnvironment10fogChangedEv@@Qt_6_PRIVATE_API
libQt6Quick3D.so.6:_ZN24QQuick3DSceneEnvironment10itemChangeEN14QQuick3DObject10ItemChangeERKNS0_14ItemChangeDataE@@Qt_6_PRIVATE_API
libQt6Quick3D.so.6:_ZN24QQuick3DSceneEnvironment11qmlEffectAtEP16QQmlListPropertyI14QQuick3DEffectEx@@Qt_6_PRIVATE_API
libQt6Quick3D.so.6:_ZN24QQuick3DSceneEnvironment11qt_metacallEN11QMetaObject4CallEiPPv@@Qt_6_PRIVATE_API
libQt6Quick3D.so.6:_ZN24QQuick3DSceneEnvironment11qt_metacastEPKc@@Qt_6_PRIVATE_API
libQt6Quick3D.so.6:_ZN24QQuick3DSceneEnvironment11setAoDitherEb@@Qt_6_PRIVATE_API
libQt6Quick3D.so.6:_ZN24QQuick3DSceneEnvironment12setAoEnabledEb@@Qt_6_PRIVATE_API
libQt6Quick3D.so.6:_ZN24QQuick3DSceneEnvironment12setGridFlagsEj@@Qt_6_PRIVATE_API
libQt6Quick3D.so.6:_ZN24QQuick3DSceneEnvironment12setGridScaleEf@@Qt_6_PRIVATE_API
libQt6Quick3D.so.6:_ZN24QQuick3DSceneEnvironment13aoBiasChangedEv@@Qt_6_PRIVATE_API
libQt6Quick3D.so.6:_ZN24QQuick3DSceneEnvironment13setAoDistanceEf@@Qt_6_PRIVATE_API
libQt6Quick3D.so.6:_ZN24QQuick3DSceneEnvironment13setAoSoftnessEf@@Qt_6_PRIVATE_API
libQt6Quick3D.so.6:_ZN24QQuick3DSceneEnvironment13setAoStrengthEf@@Qt_6_PRIVATE_API
libQt6Quick3D.so.6:_ZN24QQuick3DSceneEnvironment13setClearColorERK6QColor@@Qt_6_PRIVATE_API
libQt6Quick3D.so.6:_ZN24QQuick3DSceneEnvironment13setLightProbeEP15QQuick3DTexture@@Qt_6_PRIVATE_API
libQt6Quick3D.so.6:_ZN24QQuick3DSceneEnvironment14setGridEnabledEb@@Qt_6_PRIVATE_API
libQt6Quick3D.so.6:_ZN24QQuick3DSceneEnvironment14setLightmapperEP19QQuick3DLightmapper@@Qt_6_PRIVATE_API
libQt6Quick3D.so.6:_ZN24QQuick3DSceneEnvironment14setScissorRectE5QRect@@Qt_6_PRIVATE_API
libQt6Quick3D.so.6:_ZN24QQuick3DSceneEnvironment14setTonemapModeENS_31QQuick3DEnvironmentTonemapModesE@@Qt_6_PRIVATE_API
libQt6Quick3D.so.6:_ZN24QQuick3DSceneEnvironment15aoDitherChangedEv@@Qt_6_PRIVATE_API
libQt6Quick3D.so.6:_ZN24QQuick3DSceneEnvironment15qmlAppendEffectEP16QQmlListPropertyI14QQuick3DEffectEPS1_@@Qt_6_PRIVATE_API
libQt6Quick3D.so.6:_ZN24QQuick3DSceneEnvironment15qmlClearEffectsEP16QQmlListPropertyI14QQuick3DEffectE@@Qt_6_PRIVATE_API
libQt6Quick3D.so.6:_ZN24QQuick3DSceneEnvironment15qmlEffectsCountEP16QQmlListPropertyI14QQuick3DEffectE@@Qt_6_PRIVATE_API
libQt6Quick3D.so.6:_ZN24QQuick3DSceneEnvironment15setAoSampleRateEi@@Qt_6_PRIVATE_API
libQt6Quick3D.so.6:_ZN24QQuick3DSceneEnvironment15setProbeHorizonEf@@Qt_6_PRIVATE_API
libQt6Quick3D.so.6:_ZN24QQuick3DSceneEnvironment16aoEnabledChangedEv@@Qt_6_PRIVATE_API
libQt6Quick3D.so.6:_ZN24QQuick3DSceneEnvironment16setDebugSettingsEP21QQuick3DDebugSettings@@Qt_6_PRIVATE_API
libQt6Quick3D.so.6:_ZN24QQuick3DSceneEnvironment16setProbeExposureEf@@Qt_6_PRIVATE_API
libQt6Quick3D.so.6:_ZN24QQuick3DSceneEnvironment16setSkyBoxCubeMapEP22QQuick3DCubeMapTexture@@Qt_6_PRIVATE_API
libQt6Quick3D.so.6:_ZN24QQuick3DSceneEnvironment17aoDistanceChangedEv@@Qt_6_PRIVATE_API
libQt6Quick3D.so.6:_ZN24QQuick3DSceneEnvironment17aoSoftnessChangedEv@@Qt_6_PRIVATE_API
libQt6Quick3D.so.6:_ZN24QQuick3DSceneEnvironment17aoStrengthChangedEv@@Qt_6_PRIVATE_API
libQt6Quick3D.so.6:_ZN24QQuick3DSceneEnvironment17clearColorChangedEv@@Qt_6_PRIVATE_API
libQt6Quick3D.so.6:_ZN24QQuick3DSceneEnvironment17lightProbeChangedEv@@Qt_6_PRIVATE_API
libQt6Quick3D.so.6:_ZN24QQuick3DSceneEnvironment17setBackgroundModeENS_34QQuick3DEnvironmentBackgroundTypesE@@Qt_6_PRIVATE_API
libQt6Quick3D.so.6:_ZN24QQuick3DSceneEnvironment17updateSpatialNodeEP21QSSGRenderGraphObject@@Qt_6_PRIVATE_API
libQt6Quick3D.so.6:_ZN24QQuick3DSceneEnvironment18lightmapperChangedEv@@Qt_6_PRIVATE_API
libQt6Quick3D.so.6:_ZN24QQuick3DSceneEnvironment18scissorRectChangedEv@@Qt_6_PRIVATE_API
libQt6Quick3D.so.6:_ZN24QQuick3DSceneEnvironment18tonemapModeChangedEv@@Qt_6_PRIVATE_API
libQt6Quick3D.so.6:_ZN24QQuick3DSceneEnvironment18updateSceneManagerEP20QQuick3DSceneManager@@Qt_6_PRIVATE_API
libQt6Quick3D.so.6:_ZN24QQuick3DSceneEnvironment19aoSampleRateChangedEv@@Qt_6_PRIVATE_API
libQt6Quick3D.so.6:_ZN24QQuick3DSceneEnvironment19probeHorizonChangedEv@@Qt_6_PRIVATE_API
libQt6Quick3D.so.6:_ZN24QQuick3DSceneEnvironment19setAntialiasingModeENS_31QQuick3DEnvironmentAAModeValuesE@@Qt_6_PRIVATE_API
libQt6Quick3D.so.6:_ZN24QQuick3DSceneEnvironment19setDepthTestEnabledEb@@Qt_6_PRIVATE_API
libQt6Quick3D.so.6:_ZN24QQuick3DSceneEnvironment19setProbeOrientationERK9QVector3D@@Qt_6_PRIVATE_API
libQt6Quick3D.so.6:_ZN24QQuick3DSceneEnvironment19setSkyboxBlurAmountEf@@Qt_6_PRIVATE_API
libQt6Quick3D.so.6:_ZN24QQuick3DSceneEnvironment20debugSettingsChangedEv@@Qt_6_PRIVATE_API
libQt6Quick3D.so.6:_ZN24QQuick3DSceneEnvironment20probeExposureChangedEv@@Qt_6_PRIVATE_API
libQt6Quick3D.so.6:_ZN24QQuick3DSceneEnvironment20setSpecularAAEnabledEb@@Qt_6_PRIVATE_API
libQt6Quick3D.so.6:_ZN24QQuick3DSceneEnvironment20setTemporalAAEnabledEb@@Qt_6_PRIVATE_API
libQt6Quick3D.so.6:_ZN24QQuick3DSceneEnvironment20skyBoxCubeMapChangedEv@@Qt_6_PRIVATE_API
libQt6Quick3D.so.6:_ZN24QQuick3DSceneEnvironment21backgroundModeChangedEv@@Qt_6_PRIVATE_API
libQt6Quick3D.so.6:_ZN24QQuick3DSceneEnvironment21setTemporalAAStrengthEf@@Qt_6_PRIVATE_API
libQt6Quick3D.so.6:_ZN24QQuick3DSceneEnvironment22setAntialiasingQualityENS_34QQuick3DEnvironmentAAQualityValuesE@@Qt_6_PRIVATE_API
libQt6Quick3D.so.6:_ZN24QQuick3DSceneEnvironment22setDepthPrePassEnabledEb@@Qt_6_PRIVATE_API
libQt6Quick3D.so.6:_ZN24QQuick3DSceneEnvironment23antialiasingModeChangedEv@@Qt_6_PRIVATE_API
libQt6Quick3D.so.6:_ZN24QQuick3DSceneEnvironment23depthTestEnabledChangedEv@@Qt_6_PRIVATE_API
libQt6Quick3D.so.6:_ZN24QQuick3DSceneEnvironment23probeOrientationChangedEv@@Qt_6_PRIVATE_API
libQt6Quick3D.so.6:_ZN24QQuick3DSceneEnvironment23skyboxBlurAmountChangedEv@@Qt_6_PRIVATE_API
libQt6Quick3D.so.6:_ZN24QQuick3DSceneEnvironment24specularAAEnabledChangedEv@@Qt_6_PRIVATE_API
libQt6Quick3D.so.6:_ZN24QQuick3DSceneEnvironment24temporalAAEnabledChangedEv@@Qt_6_PRIVATE_API
libQt6Quick3D.so.6:_ZN24QQuick3DSceneEnvironment25temporalAAStrengthChangedEv@@Qt_6_PRIVATE_API
libQt6Quick3D.so.6:_ZN24QQuick3DSceneEnvironment26antialiasingQualityChangedEv@@Qt_6_PRIVATE_API
libQt6Quick3D.so.6:_ZN24QQuick3DSceneEnvironment26depthPrePassEnabledChangedEv@@Qt_6_PRIVATE_API
libQt6Quick3D.so.6:_ZN24QQuick3DSceneEnvironment6setFogEP11QQuick3DFog@@Qt_6_PRIVATE_API
libQt6Quick3D.so.6:_ZN24QQuick3DSceneEnvironment7effectsEv@@Qt_6_PRIVATE_API
libQt6Quick3D.so.6:_ZN24QQuick3DSceneEnvironment9setAoBiasEf@@Qt_6_PRIVATE_API
libQt6Quick3D.so.6:_ZN24QQuick3DSceneEnvironmentC1EP14QQuick3DObject@@Qt_6_PRIVATE_API
libQt6Quick3D.so.6:_ZN24QQuick3DSceneEnvironmentC2EP14QQuick3DObject@@Qt_6_PRIVATE_API
libQt6Quick3D.so.6:_ZN24QQuick3DSceneEnvironmentD0Ev@@Qt_6_PRIVATE_API
libQt6Quick3D.so.6:_ZN24QQuick3DSceneEnvironmentD1Ev@@Qt_6_PRIVATE_API
libQt6Quick3D.so.6:_ZN24QQuick3DSceneEnvironmentD2Ev@@Qt_6_PRIVATE_API
libQt6Quick3D.so.6:_ZN24QQuick3DWindowAttachment11evaluateEolEv@@Qt_6_PRIVATE_API
libQt6Quick3D.so.6:_ZN24QQuick3DWindowAttachment11qt_metacallEN11QMetaObject4CallEiPPv@@Qt_6_PRIVATE_API
libQt6Quick3D.so.6:_ZN24QQuick3DWindowAttachment11qt_metacastEPKc@@Qt_6_PRIVATE_API
libQt6Quick3D.so.6:_ZN24QQuick3DWindowAttachment11synchronizeER4QSetIP21QSSGRenderGraphObjectE@@Qt_6_PRIVATE_API
libQt6Quick3D.so.6:_ZN24QQuick3DWindowAttachment13onInvalidatedEv@@Qt_6_PRIVATE_API
libQt6Quick3D.so.6:_ZN24QQuick3DWindowAttachment13requestUpdateEv@@Qt_6_PRIVATE_API
libQt6Quick3D.so.6:_ZN24QQuick3DWindowAttachment15queueForCleanupEP20QQuick3DSceneManager@@Qt_6_PRIVATE_API
libQt6Quick3D.so.6:_ZN24QQuick3DWindowAttachment15queueForCleanupEP21QSSGRenderGraphObject@@Qt_6_PRIVATE_API
libQt6Quick3D.so.6:_ZN24QQuick3DWindowAttachment16cleanupResourcesEv@@Qt_6_PRIVATE_API
libQt6Quick3D.so.6:_ZN24QQuick3DWindowAttachment20registerSceneManagerER20QQuick3DSceneManager@@Qt_6_PRIVATE_API
libQt6Quick3D.so.6:_ZN24QQuick3DWindowAttachment22releaseCachedResourcesEv@@Qt_6_PRIVATE_API
libQt6Quick3D.so.6:_ZN24QQuick3DWindowAttachment22unregisterSceneManagerER20QQuick3DSceneManager@@Qt_6_PRIVATE_API
libQt6Quick3D.so.6:_ZN24QQuick3DWindowAttachment24onReleaseCachedResourcesEv@@Qt_6_PRIVATE_API
libQt6Quick3D.so.6:_ZN24QQuick3DWindowAttachment29renderContextInterfaceChangedEv@@Qt_6_PRIVATE_API
libQt6Quick3D.so.6:_ZN24QQuick3DWindowAttachment6setRciERKSt10shared_ptrI26QSSGRenderContextInterfaceE@@Qt_6_PRIVATE_API
libQt6Quick3D.so.6:_ZN24QQuick3DWindowAttachment7preSyncEv@@Qt_6_PRIVATE_API
libQt6Quick3D.so.6:_ZN24QQuick3DWindowAttachmentC1EP12QQuickWindow@@Qt_6_PRIVATE_API
libQt6Quick3D.so.6:_ZN24QQuick3DWindowAttachmentC2EP12QQuickWindow@@Qt_6_PRIVATE_API
libQt6Quick3D.so.6:_ZN24QQuick3DWindowAttachmentD0Ev@@Qt_6_PRIVATE_API
libQt6Quick3D.so.6:_ZN24QQuick3DWindowAttachmentD1Ev@@Qt_6_PRIVATE_API
libQt6Quick3D.so.6:_ZN24QQuick3DWindowAttachmentD2Ev@@Qt_6_PRIVATE_API
libQt6Quick3D.so.6:_ZN25QQuick3DInstanceListEntry11qt_metacallEN11QMetaObject4CallEiPPv@@Qt_6_PRIVATE_API
libQt6Quick3D.so.6:_ZN25QQuick3DInstanceListEntry11qt_metacastEPKc@@Qt_6_PRIVATE_API
libQt6Quick3D.so.6:_ZN25QQuick3DInstanceListEntry11setPositionE9QVector3D@@Qt_6_PRIVATE_API
libQt6Quick3D.so.6:_ZN25QQuick3DInstanceListEntry11setRotationE11QQuaternion@@Qt_6_PRIVATE_API
libQt6Quick3D.so.6:_ZN25QQuick3DInstanceListEntry12colorChangedEv@@Qt_6_PRIVATE_API
libQt6Quick3D.so.6:_ZN25QQuick3DInstanceListEntry12scaleChangedEv@@Qt_6_PRIVATE_API
libQt6Quick3D.so.6:_ZN25QQuick3DInstanceListEntry13setCustomDataE9QVector4D@@Qt_6_PRIVATE_API
libQt6Quick3D.so.6:_ZN25QQuick3DInstanceListEntry15positionChangedEv@@Qt_6_PRIVATE_API
libQt6Quick3D.so.6:_ZN25QQuick3DInstanceListEntry15rotationChangedEv@@Qt_6_PRIVATE_API
libQt6Quick3D.so.6:_ZN25QQuick3DInstanceListEntry16setEulerRotationE9QVector3D@@Qt_6_PRIVATE_API
libQt6Quick3D.so.6:_ZN25QQuick3DInstanceListEntry17customDataChangedEv@@Qt_6_PRIVATE_API
libQt6Quick3D.so.6:_ZN25QQuick3DInstanceListEntry20eulerRotationChangedEv@@Qt_6_PRIVATE_API
libQt6Quick3D.so.6:_ZN25QQuick3DInstanceListEntry7changedEv@@Qt_6_PRIVATE_API
libQt6Quick3D.so.6:_ZN25QQuick3DInstanceListEntry8setColorE6QColor@@Qt_6_PRIVATE_API
libQt6Quick3D.so.6:_ZN25QQuick3DInstanceListEntry8setScaleE9QVector3D@@Qt_6_PRIVATE_API
libQt6Quick3D.so.6:_ZN25QQuick3DInstanceListEntryC1EP14QQuick3DObject@@Qt_6_PRIVATE_API
libQt6Quick3D.so.6:_ZN25QQuick3DInstanceListEntryC2EP14QQuick3DObject@@Qt_6_PRIVATE_API
libQt6Quick3D.so.6:_ZN25QQuick3DPerspectiveCamera10setClipFarEf@@Qt_6_PRIVATE_API
libQt6Quick3D.so.6:_ZN25QQuick3DPerspectiveCamera11qt_metacallEN11QMetaObject4CallEiPPv@@Qt_6_PRIVATE_API
libQt6Quick3D.so.6:_ZN25QQuick3DPerspectiveCamera11qt_metacastEPKc@@Qt_6_PRIVATE_API
libQt6Quick3D.so.6:_ZN25QQuick3DPerspectiveCamera11setClipNearEf@@Qt_6_PRIVATE_API
libQt6Quick3D.so.6:_ZN25QQuick3DPerspectiveCamera14clipFarChangedEv@@Qt_6_PRIVATE_API
libQt6Quick3D.so.6:_ZN25QQuick3DPerspectiveCamera14setFieldOfViewEf@@Qt_6_PRIVATE_API
libQt6Quick3D.so.6:_ZN25QQuick3DPerspectiveCamera15clipNearChangedEv@@Qt_6_PRIVATE_API
libQt6Quick3D.so.6:_ZN25QQuick3DPerspectiveCamera17updateSpatialNodeEP21QSSGRenderGraphObject@@Qt_6_PRIVATE_API
libQt6Quick3D.so.6:_ZN25QQuick3DPerspectiveCamera18fieldOfViewChangedEv@@Qt_6_PRIVATE_API
libQt6Quick3D.so.6:_ZN25QQuick3DPerspectiveCamera25setFieldOfViewOrientationENS_22FieldOfViewOrientationE@@Qt_6_PRIVATE_API
libQt6Quick3D.so.6:_ZN25QQuick3DPerspectiveCamera29fieldOfViewOrientationChangedEv@@Qt_6_PRIVATE_API
libQt6Quick3D.so.6:_ZN25QQuick3DPerspectiveCameraC1EP12QQuick3DNode@@Qt_6_PRIVATE_API
libQt6Quick3D.so.6:_ZN25QQuick3DPerspectiveCameraC1ER19QQuick3DNodePrivateP12QQuick3DNode@@Qt_6_PRIVATE_API
libQt6Quick3D.so.6:_ZN25QQuick3DPerspectiveCameraC2EP12QQuick3DNode@@Qt_6_PRIVATE_API
libQt6Quick3D.so.6:_ZN25QQuick3DPerspectiveCameraC2ER19QQuick3DNodePrivateP12QQuick3DNode@@Qt_6_PRIVATE_API
libQt6Quick3D.so.6:_ZN25QQuick3DShaderUtilsBuffer11qt_metacallEN11QMetaObject4CallEiPPv@@Qt_6_PRIVATE_API
libQt6Quick3D.so.6:_ZN25QQuick3DShaderUtilsBuffer11qt_metacastEPKc@@Qt_6_PRIVATE_API
libQt6Quick3D.so.6:_ZN25QQuick3DShaderUtilsBuffer16mapTextureFormatENS_13TextureFormatE@@Qt_6_PRIVATE_API
libQt6Quick3D.so.6:_ZN25QQuick3DShaderUtilsBuffer22mapRenderTextureFormatEN23QSSGRenderTextureFormat6FormatE@@Qt_6_PRIVATE_API
libQt6Quick3D.so.6:_ZN25QQuick3DShaderUtilsBuffer9setFormatENS_13TextureFormatE@@Qt_6_PRIVATE_API
libQt6Quick3D.so.6:_ZN25QQuick3DShaderUtilsShader11qt_metacallEN11QMetaObject4CallEiPPv@@Qt_6_PRIVATE_API
libQt6Quick3D.so.6:_ZN25QQuick3DShaderUtilsShader11qt_metacastEPKc@@Qt_6_PRIVATE_API
libQt6Quick3D.so.6:_ZN25QQuick3DShaderUtilsShader12stageChangedEv@@Qt_6_PRIVATE_API
libQt6Quick3D.so.6:_ZN25QQuick3DShaderUtilsShader13shaderChangedEv@@Qt_6_PRIVATE_API
libQt6Quick3D.so.6:_ZN26QQuick3DOrthographicCamera10setClipFarEf@@Qt_6_PRIVATE_API
libQt6Quick3D.so.6:_ZN26QQuick3DOrthographicCamera11qt_metacallEN11QMetaObject4CallEiPPv@@Qt_6_PRIVATE_API
libQt6Quick3D.so.6:_ZN26QQuick3DOrthographicCamera11qt_metacastEPKc@@Qt_6_PRIVATE_API
libQt6Quick3D.so.6:_ZN26QQuick3DOrthographicCamera11setClipNearEf@@Qt_6_PRIVATE_API
libQt6Quick3D.so.6:_ZN26QQuick3DOrthographicCamera14clipFarChangedEv@@Qt_6_PRIVATE_API
libQt6Quick3D.so.6:_ZN26QQuick3DOrthographicCamera15clipNearChangedEv@@Qt_6_PRIVATE_API
libQt6Quick3D.so.6:_ZN26QQuick3DOrthographicCamera17updateSpatialNodeEP21QSSGRenderGraphObject@@Qt_6_PRIVATE_API
libQt6Quick3D.so.6:_ZN26QQuick3DOrthographicCamera24setVerticalMagnificationEf@@Qt_6_PRIVATE_API
libQt6Quick3D.so.6:_ZN26QQuick3DOrthographicCamera26setHorizontalMagnificationEf@@Qt_6_PRIVATE_API
libQt6Quick3D.so.6:_ZN26QQuick3DOrthographicCamera28verticalMagnificationChangedEv@@Qt_6_PRIVATE_API
libQt6Quick3D.so.6:_ZN26QQuick3DOrthographicCamera30horizontalMagnificationChangedEv@@Qt_6_PRIVATE_API
libQt6Quick3D.so.6:_ZN26QQuick3DOrthographicCameraC1EP12QQuick3DNode@@Qt_6_PRIVATE_API
libQt6Quick3D.so.6:_ZN26QQuick3DOrthographicCameraC2EP12QQuick3DNode@@Qt_6_PRIVATE_API
libQt6Quick3D.so.6:_ZN26QQuick3DPrincipledMaterial10itemChangeEN14QQuick3DObject10ItemChangeERKNS0_14ItemChangeDataE@@Qt_6_PRIVATE_API
libQt6Quick3D.so.6:_ZN26QQuick3DPrincipledMaterial10setOpacityEf@@Qt_6_PRIVATE_API
libQt6Quick3D.so.6:_ZN26QQuick3DPrincipledMaterial11qt_metacallEN11QMetaObject4CallEiPPv@@Qt_6_PRIVATE_API
libQt6Quick3D.so.6:_ZN26QQuick3DPrincipledMaterial11qt_metacastEPKc@@Qt_6_PRIVATE_API
libQt6Quick3D.so.6:_ZN26QQuick3DPrincipledMaterial11setLightingENS_8LightingE@@Qt_6_PRIVATE_API
libQt6Quick3D.so.6:_ZN26QQuick3DPrincipledMaterial12markAllDirtyEv@@Qt_6_PRIVATE_API
libQt6Quick3D.so.6:_ZN26QQuick3DPrincipledMaterial12setAlphaModeENS_9AlphaModeE@@Qt_6_PRIVATE_API
libQt6Quick3D.so.6:_ZN26QQuick3DPrincipledMaterial12setBaseColorE6QColor@@Qt_6_PRIVATE_API
libQt6Quick3D.so.6:_ZN26QQuick3DPrincipledMaterial12setBlendModeENS_9BlendModeE@@Qt_6_PRIVATE_API
libQt6Quick3D.so.6:_ZN26QQuick3DPrincipledMaterial12setHeightMapEP15QQuick3DTexture@@Qt_6_PRIVATE_API
libQt6Quick3D.so.6:_ZN26QQuick3DPrincipledMaterial12setLineWidthEf@@Qt_6_PRIVATE_API
libQt6Quick3D.so.6:_ZN26QQuick3DPrincipledMaterial12setMetalnessEf@@Qt_6_PRIVATE_API
libQt6Quick3D.so.6:_ZN26QQuick3DPrincipledMaterial12setNormalMapEP15QQuick3DTexture@@Qt_6_PRIVATE_API
libQt6Quick3D.so.6:_ZN26QQuick3DPrincipledMaterial12setPointSizeEf@@Qt_6_PRIVATE_API
libQt6Quick3D.so.6:_ZN26QQuick3DPrincipledMaterial12setRoughnessEf@@Qt_6_PRIVATE_API
libQt6Quick3D.so.6:_ZN26QQuick3DPrincipledMaterial13setOpacityMapEP15QQuick3DTexture@@Qt_6_PRIVATE_API
libQt6Quick3D.so.6:_ZN26QQuick3DPrincipledMaterial14opacityChangedEf@@Qt_6_PRIVATE_API
libQt6Quick3D.so.6:_ZN26QQuick3DPrincipledMaterial14setAlphaCutoffEf@@Qt_6_PRIVATE_API
libQt6Quick3D.so.6:_ZN26QQuick3DPrincipledMaterial14setEmissiveMapEP15QQuick3DTexture@@Qt_6_PRIVATE_API
libQt6Quick3D.so.6:_ZN26QQuick3DPrincipledMaterial14setSpecularMapEP15QQuick3DTexture@@Qt_6_PRIVATE_API
libQt6Quick3D.so.6:_ZN26QQuick3DPrincipledMaterial15lightingChangedENS_8LightingE@@Qt_6_PRIVATE_API
libQt6Quick3D.so.6:_ZN26QQuick3DPrincipledMaterial15setBaseColorMapEP15QQuick3DTexture@@Qt_6_PRIVATE_API
libQt6Quick3D.so.6:_ZN26QQuick3DPrincipledMaterial15setClearcoatMapEP15QQuick3DTexture@@Qt_6_PRIVATE_API
libQt6Quick3D.so.6:_ZN26QQuick3DPrincipledMaterial15setHeightAmountEf@@Qt_6_PRIVATE_API
libQt6Quick3D.so.6:_ZN26QQuick3DPrincipledMaterial15setMetalnessMapEP15QQuick3DTexture@@Qt_6_PRIVATE_API
libQt6Quick3D.so.6:_ZN26QQuick3DPrincipledMaterial15setOcclusionMapEP15QQuick3DTexture@@Qt_6_PRIVATE_API
libQt6Quick3D.so.6:_ZN26QQuick3DPrincipledMaterial15setRoughnessMapEP15QQuick3DTexture@@Qt_6_PRIVATE_API
libQt6Quick3D.so.6:_ZN26QQuick3DPrincipledMaterial15setSpecularTintEf@@Qt_6_PRIVATE_API
libQt6Quick3D.so.6:_ZN26QQuick3DPrincipledMaterial15setThicknessMapEP15QQuick3DTexture@@Qt_6_PRIVATE_API
libQt6Quick3D.so.6:_ZN26QQuick3DPrincipledMaterial16alphaModeChangedENS_9AlphaModeE@@Qt_6_PRIVATE_API
libQt6Quick3D.so.6:_ZN26QQuick3DPrincipledMaterial16baseColorChangedE6QColor@@Qt_6_PRIVATE_API
libQt6Quick3D.so.6:_ZN26QQuick3DPrincipledMaterial16blendModeChangedENS_9BlendModeE@@Qt_6_PRIVATE_API
libQt6Quick3D.so.6:_ZN26QQuick3DPrincipledMaterial16heightMapChangedEP15QQuick3DTexture@@Qt_6_PRIVATE_API
libQt6Quick3D.so.6:_ZN26QQuick3DPrincipledMaterial16lineWidthChangedEv@@Qt_6_PRIVATE_API
libQt6Quick3D.so.6:_ZN26QQuick3DPrincipledMaterial16metalnessChangedEf@@Qt_6_PRIVATE_API
libQt6Quick3D.so.6:_ZN26QQuick3DPrincipledMaterial16normalMapChangedEP15QQuick3DTexture@@Qt_6_PRIVATE_API
libQt6Quick3D.so.6:_ZN26QQuick3DPrincipledMaterial16pointSizeChangedEv@@Qt_6_PRIVATE_API
libQt6Quick3D.so.6:_ZN26QQuick3DPrincipledMaterial16roughnessChangedEf@@Qt_6_PRIVATE_API
libQt6Quick3D.so.6:_ZN26QQuick3DPrincipledMaterial16setHeightChannelEN16QQuick3DMaterial21TextureChannelMappingE@@Qt_6_PRIVATE_API
libQt6Quick3D.so.6:_ZN26QQuick3DPrincipledMaterial17opacityMapChangedEP15QQuick3DTexture@@Qt_6_PRIVATE_API
libQt6Quick3D.so.6:_ZN26QQuick3DPrincipledMaterial17setEmissiveFactorE9QVector3D@@Qt_6_PRIVATE_API
libQt6Quick3D.so.6:_ZN26QQuick3DPrincipledMaterial17setNormalStrengthEf@@Qt_6_PRIVATE_API
libQt6Quick3D.so.6:_ZN26QQuick3DPrincipledMaterial17setOpacityChannelEN16QQuick3DMaterial21TextureChannelMappingE@@Qt_6_PRIVATE_API
libQt6Quick3D.so.6:_ZN26QQuick3DPrincipledMaterial17setSpecularAmountEf@@Qt_6_PRIVATE_API
libQt6Quick3D.so.6:_ZN26QQuick3DPrincipledMaterial17updateSpatialNodeEP21QSSGRenderGraphObject@@Qt_6_PRIVATE_API
libQt6Quick3D.so.6:_ZN26QQuick3DPrincipledMaterial18alphaCutoffChangedEf@@Qt_6_PRIVATE_API
libQt6Quick3D.so.6:_ZN26QQuick3DPrincipledMaterial18emissiveMapChangedEP15QQuick3DTexture@@Qt_6_PRIVATE_API
libQt6Quick3D.so.6:_ZN26QQuick3DPrincipledMaterial18setClearcoatAmountEf@@Qt_6_PRIVATE_API
libQt6Quick3D.so.6:_ZN26QQuick3DPrincipledMaterial18setOcclusionAmountEf@@Qt_6_PRIVATE_API
libQt6Quick3D.so.6:_ZN26QQuick3DPrincipledMaterial18setThicknessFactorEf@@Qt_6_PRIVATE_API
libQt6Quick3D.so.6:_ZN26QQuick3DPrincipledMaterial18setTransmissionMapEP15QQuick3DTexture@@Qt_6_PRIVATE_API
libQt6Quick3D.so.6:_ZN26QQuick3DPrincipledMaterial18specularMapChangedEP15QQuick3DTexture@@Qt_6_PRIVATE_API
libQt6Quick3D.so.6:_ZN26QQuick3DPrincipledMaterial18updateSceneManagerEP20QQuick3DSceneManager@@Qt_6_PRIVATE_API
libQt6Quick3D.so.6:_ZN26QQuick3DPrincipledMaterial19baseColorMapChangedEP15QQuick3DTexture@@Qt_6_PRIVATE_API
libQt6Quick3D.so.6:_ZN26QQuick3DPrincipledMaterial19clearcoatMapChangedEP15QQuick3DTexture@@Qt_6_PRIVATE_API
libQt6Quick3D.so.6:_ZN26QQuick3DPrincipledMaterial19heightAmountChangedEf@@Qt_6_PRIVATE_API
libQt6Quick3D.so.6:_ZN26QQuick3DPrincipledMaterial19metalnessMapChangedEP15QQuick3DTexture@@Qt_6_PRIVATE_API
libQt6Quick3D.so.6:_ZN26QQuick3DPrincipledMaterial19occlusionMapChangedEP15QQuick3DTexture@@Qt_6_PRIVATE_API
libQt6Quick3D.so.6:_ZN26QQuick3DPrincipledMaterial19roughnessMapChangedEP15QQuick3DTexture@@Qt_6_PRIVATE_API
libQt6Quick3D.so.6:_ZN26QQuick3DPrincipledMaterial19setAttenuationColorERK6QColor@@Qt_6_PRIVATE_API
libQt6Quick3D.so.6:_ZN26QQuick3DPrincipledMaterial19setClearcoatChannelEN16QQuick3DMaterial21TextureChannelMappingE@@Qt_6_PRIVATE_API
libQt6Quick3D.so.6:_ZN26QQuick3DPrincipledMaterial19setMetalnessChannelEN16QQuick3DMaterial21TextureChannelMappingE@@Qt_6_PRIVATE_API
libQt6Quick3D.so.6:_ZN26QQuick3DPrincipledMaterial19setOcclusionChannelEN16QQuick3DMaterial21TextureChannelMappingE@@Qt_6_PRIVATE_API
libQt6Quick3D.so.6:_ZN26QQuick3DPrincipledMaterial19setRoughnessChannelEN16QQuick3DMaterial21TextureChannelMappingE@@Qt_6_PRIVATE_API
libQt6Quick3D.so.6:_ZN26QQuick3DPrincipledMaterial19setThicknessChannelERKN16QQuick3DMaterial21TextureChannelMappingE@@Qt_6_PRIVATE_API
libQt6Quick3D.so.6:_ZN26QQuick3DPrincipledMaterial19specularTintChangedEf@@Qt_6_PRIVATE_API
libQt6Quick3D.so.6:_ZN26QQuick3DPrincipledMaterial19thicknessMapChangedEP15QQuick3DTexture@@Qt_6_PRIVATE_API
libQt6Quick3D.so.6:_ZN26QQuick3DPrincipledMaterial20heightChannelChangedEN16QQuick3DMaterial21TextureChannelMappingE@@Qt_6_PRIVATE_API
libQt6Quick3D.so.6:_ZN26QQuick3DPrincipledMaterial20setIndexOfRefractionEf@@Qt_6_PRIVATE_API
libQt6Quick3D.so.6:_ZN26QQuick3DPrincipledMaterial21emissiveFactorChangedE9QVector3D@@Qt_6_PRIVATE_API
libQt6Quick3D.so.6:_ZN26QQuick3DPrincipledMaterial21normalStrengthChangedEf@@Qt_6_PRIVATE_API
libQt6Quick3D.so.6:_ZN26QQuick3DPrincipledMaterial21opacityChannelChangedEN16QQuick3DMaterial21TextureChannelMappingE@@Qt_6_PRIVATE_API
libQt6Quick3D.so.6:_ZN26QQuick3DPrincipledMaterial21setClearcoatNormalMapEP15QQuick3DTexture@@Qt_6_PRIVATE_API
libQt6Quick3D.so.6:_ZN26QQuick3DPrincipledMaterial21setTransmissionFactorEf@@Qt_6_PRIVATE_API
libQt6Quick3D.so.6:_ZN26QQuick3DPrincipledMaterial21specularAmountChangedEf@@Qt_6_PRIVATE_API
libQt6Quick3D.so.6:_ZN26QQuick3DPrincipledMaterial22clearcoatAmountChangedEf@@Qt_6_PRIVATE_API
libQt6Quick3D.so.6:_ZN26QQuick3DPrincipledMaterial22occlusionAmountChangedEf@@Qt_6_PRIVATE_API
libQt6Quick3D.so.6:_ZN26QQuick3DPrincipledMaterial22setAttenuationDistanceEf@@Qt_6_PRIVATE_API
libQt6Quick3D.so.6:_ZN26QQuick3DPrincipledMaterial22setMaxHeightMapSamplesEi@@Qt_6_PRIVATE_API
libQt6Quick3D.so.6:_ZN26QQuick3DPrincipledMaterial22setMinHeightMapSamplesEi@@Qt_6_PRIVATE_API
libQt6Quick3D.so.6:_ZN26QQuick3DPrincipledMaterial22setTransmissionChannelEN16QQuick3DMaterial21TextureChannelMappingE@@Qt_6_PRIVATE_API
libQt6Quick3D.so.6:_ZN26QQuick3DPrincipledMaterial22setVertexColorsEnabledEb@@Qt_6_PRIVATE_API
libQt6Quick3D.so.6:_ZN26QQuick3DPrincipledMaterial22thicknessFactorChangedEf@@Qt_6_PRIVATE_API
libQt6Quick3D.so.6:_ZN26QQuick3DPrincipledMaterial22transmissionMapChangedEP15QQuick3DTexture@@Qt_6_PRIVATE_API
libQt6Quick3D.so.6:_ZN26QQuick3DPrincipledMaterial23attenuationColorChangedE6QColor@@Qt_6_PRIVATE_API
libQt6Quick3D.so.6:_ZN26QQuick3DPrincipledMaterial23clearcoatChannelChangedEN16QQuick3DMaterial21TextureChannelMappingE@@Qt_6_PRIVATE_API
libQt6Quick3D.so.6:_ZN26QQuick3DPrincipledMaterial23metalnessChannelChangedEN16QQuick3DMaterial21TextureChannelMappingE@@Qt_6_PRIVATE_API
libQt6Quick3D.so.6:_ZN26QQuick3DPrincipledMaterial23occlusionChannelChangedEN16QQuick3DMaterial21TextureChannelMappingE@@Qt_6_PRIVATE_API
libQt6Quick3D.so.6:_ZN26QQuick3DPrincipledMaterial23roughnessChannelChangedEN16QQuick3DMaterial21TextureChannelMappingE@@Qt_6_PRIVATE_API
libQt6Quick3D.so.6:_ZN26QQuick3DPrincipledMaterial23thicknessChannelChangedEN16QQuick3DMaterial21TextureChannelMappingE@@Qt_6_PRIVATE_API
libQt6Quick3D.so.6:_ZN26QQuick3DPrincipledMaterial24indexOfRefractionChangedEf@@Qt_6_PRIVATE_API
libQt6Quick3D.so.6:_ZN26QQuick3DPrincipledMaterial24setClearcoatRoughnessMapEP15QQuick3DTexture@@Qt_6_PRIVATE_API
libQt6Quick3D.so.6:_ZN26QQuick3DPrincipledMaterial24setSpecularReflectionMapEP15QQuick3DTexture@@Qt_6_PRIVATE_API
libQt6Quick3D.so.6:_ZN26QQuick3DPrincipledMaterial25clearcoatNormalMapChangedEP15QQuick3DTexture@@Qt_6_PRIVATE_API
libQt6Quick3D.so.6:_ZN26QQuick3DPrincipledMaterial25transmissionFactorChangedEf@@Qt_6_PRIVATE_API
libQt6Quick3D.so.6:_ZN26QQuick3DPrincipledMaterial26attenuationDistanceChangedEf@@Qt_6_PRIVATE_API
libQt6Quick3D.so.6:_ZN26QQuick3DPrincipledMaterial26maxHeightMapSamplesChangedEi@@Qt_6_PRIVATE_API
libQt6Quick3D.so.6:_ZN26QQuick3DPrincipledMaterial26minHeightMapSamplesChangedEi@@Qt_6_PRIVATE_API
libQt6Quick3D.so.6:_ZN26QQuick3DPrincipledMaterial26transmissionChannelChangedEN16QQuick3DMaterial21TextureChannelMappingE@@Qt_6_PRIVATE_API
libQt6Quick3D.so.6:_ZN26QQuick3DPrincipledMaterial26vertexColorsEnabledChangedEb@@Qt_6_PRIVATE_API
libQt6Quick3D.so.6:_ZN26QQuick3DPrincipledMaterial27setClearcoatRoughnessAmountEf@@Qt_6_PRIVATE_API
libQt6Quick3D.so.6:_ZN26QQuick3DPrincipledMaterial28clearcoatRoughnessMapChangedEP15QQuick3DTexture@@Qt_6_PRIVATE_API
libQt6Quick3D.so.6:_ZN26QQuick3DPrincipledMaterial28setClearcoatRoughnessChannelEN16QQuick3DMaterial21TextureChannelMappingE@@Qt_6_PRIVATE_API
libQt6Quick3D.so.6:_ZN26QQuick3DPrincipledMaterial28specularReflectionMapChangedEP15QQuick3DTexture@@Qt_6_PRIVATE_API
libQt6Quick3D.so.6:_ZN26QQuick3DPrincipledMaterial31clearcoatRoughnessAmountChangedEf@@Qt_6_PRIVATE_API
libQt6Quick3D.so.6:_ZN26QQuick3DPrincipledMaterial32clearcoatRoughnessChannelChangedEN16QQuick3DMaterial21TextureChannelMappingE@@Qt_6_PRIVATE_API
libQt6Quick3D.so.6:_ZN26QQuick3DPrincipledMaterial9markDirtyENS_9DirtyTypeE@@Qt_6_PRIVATE_API
libQt6Quick3D.so.6:_ZN26QQuick3DPrincipledMaterialC1EP14QQuick3DObject@@Qt_6_PRIVATE_API
libQt6Quick3D.so.6:_ZN26QQuick3DPrincipledMaterialC2EP14QQuick3DObject@@Qt_6_PRIVATE_API
libQt6Quick3D.so.6:_ZN26QQuick3DPrincipledMaterialD0Ev@@Qt_6_PRIVATE_API
libQt6Quick3D.so.6:_ZN26QQuick3DPrincipledMaterialD1Ev@@Qt_6_PRIVATE_API
libQt6Quick3D.so.6:_ZN26QQuick3DPrincipledMaterialD2Ev@@Qt_6_PRIVATE_API
libQt6Quick3D.so.6:_ZN26QQuick3DRenderLayerHelpers21updateLayerNodeHelperERK16QQuick3DViewportR15QSSGRenderLayerRbS5_Rf@@Qt_6_PRIVATE_API
libQt6Quick3D.so.6:_ZN27QQuick3DQuaternionAnimation11qt_metacallEN11QMetaObject4CallEiPPv@@Qt_6_PRIVATE_API
libQt6Quick3D.so.6:_ZN27QQuick3DQuaternionAnimation11qt_metacastEPKc@@Qt_6_PRIVATE_API
libQt6Quick3D.so.6:_ZN27QQuick3DQuaternionAnimation11typeChangedENS_4TypeE@@Qt_6_PRIVATE_API
libQt6Quick3D.so.6:_ZN27QQuick3DQuaternionAnimation14setToXRotationEf@@Qt_6_PRIVATE_API
libQt6Quick3D.so.6:_ZN27QQuick3DQuaternionAnimation14setToYRotationEf@@Qt_6_PRIVATE_API
libQt6Quick3D.so.6:_ZN27QQuick3DQuaternionAnimation14setToZRotationEf@@Qt_6_PRIVATE_API
libQt6Quick3D.so.6:_ZN27QQuick3DQuaternionAnimation16setFromXRotationEf@@Qt_6_PRIVATE_API
libQt6Quick3D.so.6:_ZN27QQuick3DQuaternionAnimation16setFromYRotationEf@@Qt_6_PRIVATE_API
libQt6Quick3D.so.6:_ZN27QQuick3DQuaternionAnimation16setFromZRotationEf@@Qt_6_PRIVATE_API
libQt6Quick3D.so.6:_ZN27QQuick3DQuaternionAnimation18toXRotationChangedEf@@Qt_6_PRIVATE_API
libQt6Quick3D.so.6:_ZN27QQuick3DQuaternionAnimation18toYRotationChangedEf@@Qt_6_PRIVATE_API
libQt6Quick3D.so.6:_ZN27QQuick3DQuaternionAnimation18toZRotationChangedEf@@Qt_6_PRIVATE_API
libQt6Quick3D.so.6:_ZN27QQuick3DQuaternionAnimation20fromXRotationChangedEf@@Qt_6_PRIVATE_API
libQt6Quick3D.so.6:_ZN27QQuick3DQuaternionAnimation20fromYRotationChangedEf@@Qt_6_PRIVATE_API
libQt6Quick3D.so.6:_ZN27QQuick3DQuaternionAnimation20fromZRotationChangedEf@@Qt_6_PRIVATE_API
libQt6Quick3D.so.6:_ZN27QQuick3DQuaternionAnimation5setToERK11QQuaternion@@Qt_6_PRIVATE_API
libQt6Quick3D.so.6:_ZN27QQuick3DQuaternionAnimation7setFromERK11QQuaternion@@Qt_6_PRIVATE_API
libQt6Quick3D.so.6:_ZN27QQuick3DQuaternionAnimation7setTypeENS_4TypeE@@Qt_6_PRIVATE_API
libQt6Quick3D.so.6:_ZN27QQuick3DQuaternionAnimationC1EP7QObject@@Qt_6_PRIVATE_API
libQt6Quick3D.so.6:_ZN27QQuick3DQuaternionAnimationC2EP7QObject@@Qt_6_PRIVATE_API
libQt6Quick3D.so.6:_ZN29QQuick3DShaderUtilsApplyValue11qt_metacallEN11QMetaObject4CallEiPPv@@Qt_6_PRIVATE_API
libQt6Quick3D.so.6:_ZN29QQuick3DShaderUtilsApplyValue11qt_metacastEPKc@@Qt_6_PRIVATE_API
libQt6Quick3D.so.6:_ZN29QQuick3DShaderUtilsRenderPass11qmlShaderAtEP16QQmlListPropertyI25QQuick3DShaderUtilsShaderEx@@Qt_6_PRIVATE_API
libQt6Quick3D.so.6:_ZN29QQuick3DShaderUtilsRenderPass11qt_metacallEN11QMetaObject4CallEiPPv@@Qt_6_PRIVATE_API
libQt6Quick3D.so.6:_ZN29QQuick3DShaderUtilsRenderPass11qt_metacastEPKc@@Qt_6_PRIVATE_API
libQt6Quick3D.so.6:_ZN29QQuick3DShaderUtilsRenderPass12qmlCommandAtEP16QQmlListPropertyI32QQuick3DShaderUtilsRenderCommandEx@@Qt_6_PRIVATE_API
libQt6Quick3D.so.6:_ZN29QQuick3DShaderUtilsRenderPass14qmlShaderClearEP16QQmlListPropertyI25QQuick3DShaderUtilsShaderE@@Qt_6_PRIVATE_API
libQt6Quick3D.so.6:_ZN29QQuick3DShaderUtilsRenderPass14qmlShaderCountEP16QQmlListPropertyI25QQuick3DShaderUtilsShaderE@@Qt_6_PRIVATE_API
libQt6Quick3D.so.6:_ZN29QQuick3DShaderUtilsRenderPass15qmlAppendShaderEP16QQmlListPropertyI25QQuick3DShaderUtilsShaderEPS1_@@Qt_6_PRIVATE_API
libQt6Quick3D.so.6:_ZN29QQuick3DShaderUtilsRenderPass15qmlCommandClearEP16QQmlListPropertyI32QQuick3DShaderUtilsRenderCommandE@@Qt_6_PRIVATE_API
libQt6Quick3D.so.6:_ZN29QQuick3DShaderUtilsRenderPass15qmlCommandCountEP16QQmlListPropertyI32QQuick3DShaderUtilsRenderCommandE@@Qt_6_PRIVATE_API
libQt6Quick3D.so.6:_ZN29QQuick3DShaderUtilsRenderPass16qmlAppendCommandEP16QQmlListPropertyI32QQuick3DShaderUtilsRenderCommandEPS1_@@Qt_6_PRIVATE_API
libQt6Quick3D.so.6:_ZN29QQuick3DShaderUtilsRenderPass7changedEv@@Qt_6_PRIVATE_API
libQt6Quick3D.so.6:_ZN29QQuick3DShaderUtilsRenderPass7shadersEv@@Qt_6_PRIVATE_API
libQt6Quick3D.so.6:_ZN29QQuick3DShaderUtilsRenderPass8commandsEv@@Qt_6_PRIVATE_API
libQt6Quick3D.so.6:_ZN30QQuick3DShaderUtilsBufferInput11qt_metacallEN11QMetaObject4CallEiPPv@@Qt_6_PRIVATE_API
libQt6Quick3D.so.6:_ZN30QQuick3DShaderUtilsBufferInput11qt_metacastEPKc@@Qt_6_PRIVATE_API
libQt6Quick3D.so.6:_ZN30QQuick3DSpecularGlossyMaterial10itemChangeEN14QQuick3DObject10ItemChangeERKNS0_14ItemChangeDataE@@Qt_6_PRIVATE_API
libQt6Quick3D.so.6:_ZN30QQuick3DSpecularGlossyMaterial10setOpacityEf@@Qt_6_PRIVATE_API
libQt6Quick3D.so.6:_ZN30QQuick3DSpecularGlossyMaterial11qt_metacallEN11QMetaObject4CallEiPPv@@Qt_6_PRIVATE_API
libQt6Quick3D.so.6:_ZN30QQuick3DSpecularGlossyMaterial11qt_metacastEPKc@@Qt_6_PRIVATE_API
libQt6Quick3D.so.6:_ZN30QQuick3DSpecularGlossyMaterial11setLightingENS_8LightingE@@Qt_6_PRIVATE_API
libQt6Quick3D.so.6:_ZN30QQuick3DSpecularGlossyMaterial12markAllDirtyEv@@Qt_6_PRIVATE_API
libQt6Quick3D.so.6:_ZN30QQuick3DSpecularGlossyMaterial12setAlbedoMapEP15QQuick3DTexture@@Qt_6_PRIVATE_API
libQt6Quick3D.so.6:_ZN30QQuick3DSpecularGlossyMaterial12setAlphaModeENS_9AlphaModeE@@Qt_6_PRIVATE_API
libQt6Quick3D.so.6:_ZN30QQuick3DSpecularGlossyMaterial12setBlendModeENS_9BlendModeE@@Qt_6_PRIVATE_API
libQt6Quick3D.so.6:_ZN30QQuick3DSpecularGlossyMaterial12setHeightMapEP15QQuick3DTexture@@Qt_6_PRIVATE_API
libQt6Quick3D.so.6:_ZN30QQuick3DSpecularGlossyMaterial12setLineWidthEf@@Qt_6_PRIVATE_API
libQt6Quick3D.so.6:_ZN30QQuick3DSpecularGlossyMaterial12setNormalMapEP15QQuick3DTexture@@Qt_6_PRIVATE_API
libQt6Quick3D.so.6:_ZN30QQuick3DSpecularGlossyMaterial12setPointSizeEf@@Qt_6_PRIVATE_API
libQt6Quick3D.so.6:_ZN30QQuick3DSpecularGlossyMaterial13setGlossinessEf@@Qt_6_PRIVATE_API
libQt6Quick3D.so.6:_ZN30QQuick3DSpecularGlossyMaterial13setOpacityMapEP15QQuick3DTexture@@Qt_6_PRIVATE_API
libQt6Quick3D.so.6:_ZN30QQuick3DSpecularGlossyMaterial14opacityChangedEv@@Qt_6_PRIVATE_API
libQt6Quick3D.so.6:_ZN30QQuick3DSpecularGlossyMaterial14setAlbedoColorERK6QColor@@Qt_6_PRIVATE_API
libQt6Quick3D.so.6:_ZN30QQuick3DSpecularGlossyMaterial14setAlphaCutoffEf@@Qt_6_PRIVATE_API
libQt6Quick3D.so.6:_ZN30QQuick3DSpecularGlossyMaterial14setEmissiveMapEP15QQuick3DTexture@@Qt_6_PRIVATE_API
libQt6Quick3D.so.6:_ZN30QQuick3DSpecularGlossyMaterial14setSpecularMapEP15QQuick3DTexture@@Qt_6_PRIVATE_API
libQt6Quick3D.so.6:_ZN30QQuick3DSpecularGlossyMaterial15lightingChangedEv@@Qt_6_PRIVATE_API
libQt6Quick3D.so.6:_ZN30QQuick3DSpecularGlossyMaterial15setClearcoatMapEP15QQuick3DTexture@@Qt_6_PRIVATE_API
libQt6Quick3D.so.6:_ZN30QQuick3DSpecularGlossyMaterial15setHeightAmountEf@@Qt_6_PRIVATE_API
libQt6Quick3D.so.6:_ZN30QQuick3DSpecularGlossyMaterial15setOcclusionMapEP15QQuick3DTexture@@Qt_6_PRIVATE_API
libQt6Quick3D.so.6:_ZN30QQuick3DSpecularGlossyMaterial15setThicknessMapEP15QQuick3DTexture@@Qt_6_PRIVATE_API
libQt6Quick3D.so.6:_ZN30QQuick3DSpecularGlossyMaterial16albedoMapChangedEv@@Qt_6_PRIVATE_API
libQt6Quick3D.so.6:_ZN30QQuick3DSpecularGlossyMaterial16alphaModeChangedEv@@Qt_6_PRIVATE_API
libQt6Quick3D.so.6:_ZN30QQuick3DSpecularGlossyMaterial16blendModeChangedEv@@Qt_6_PRIVATE_API
libQt6Quick3D.so.6:_ZN30QQuick3DSpecularGlossyMaterial16heightMapChangedEv@@Qt_6_PRIVATE_API
libQt6Quick3D.so.6:_ZN30QQuick3DSpecularGlossyMaterial16lineWidthChangedEv@@Qt_6_PRIVATE_API
libQt6Quick3D.so.6:_ZN30QQuick3DSpecularGlossyMaterial16normalMapChangedEv@@Qt_6_PRIVATE_API
libQt6Quick3D.so.6:_ZN30QQuick3DSpecularGlossyMaterial16pointSizeChangedEv@@Qt_6_PRIVATE_API
libQt6Quick3D.so.6:_ZN30QQuick3DSpecularGlossyMaterial16setGlossinessMapEP15QQuick3DTexture@@Qt_6_PRIVATE_API
libQt6Quick3D.so.6:_ZN30QQuick3DSpecularGlossyMaterial16setHeightChannelEN16QQuick3DMaterial21TextureChannelMappingE@@Qt_6_PRIVATE_API
libQt6Quick3D.so.6:_ZN30QQuick3DSpecularGlossyMaterial16setSpecularColorERK6QColor@@Qt_6_PRIVATE_API
libQt6Quick3D.so.6:_ZN30QQuick3DSpecularGlossyMaterial17glossinessChangedEv@@Qt_6_PRIVATE_API
libQt6Quick3D.so.6:_ZN30QQuick3DSpecularGlossyMaterial17opacityMapChangedEv@@Qt_6_PRIVATE_API
libQt6Quick3D.so.6:_ZN30QQuick3DSpecularGlossyMaterial17setEmissiveFactorERK9QVector3D@@Qt_6_PRIVATE_API
libQt6Quick3D.so.6:_ZN30QQuick3DSpecularGlossyMaterial17setNormalStrengthEf@@Qt_6_PRIVATE_API
libQt6Quick3D.so.6:_ZN30QQuick3DSpecularGlossyMaterial17setOpacityChannelEN16QQuick3DMaterial21TextureChannelMappingE@@Qt_6_PRIVATE_API
libQt6Quick3D.so.6:_ZN30QQuick3DSpecularGlossyMaterial17updateSpatialNodeEP21QSSGRenderGraphObject@@Qt_6_PRIVATE_API
libQt6Quick3D.so.6:_ZN30QQuick3DSpecularGlossyMaterial18albedoColorChangedEv@@Qt_6_PRIVATE_API
libQt6Quick3D.so.6:_ZN30QQuick3DSpecularGlossyMaterial18alphaCutoffChangedEv@@Qt_6_PRIVATE_API
libQt6Quick3D.so.6:_ZN30QQuick3DSpecularGlossyMaterial18emissiveMapChangedEv@@Qt_6_PRIVATE_API
libQt6Quick3D.so.6:_ZN30QQuick3DSpecularGlossyMaterial18setClearcoatAmountEf@@Qt_6_PRIVATE_API
libQt6Quick3D.so.6:_ZN30QQuick3DSpecularGlossyMaterial18setOcclusionAmountEf@@Qt_6_PRIVATE_API
libQt6Quick3D.so.6:_ZN30QQuick3DSpecularGlossyMaterial18setThicknessFactorEf@@Qt_6_PRIVATE_API
libQt6Quick3D.so.6:_ZN30QQuick3DSpecularGlossyMaterial18setTransmissionMapEP15QQuick3DTexture@@Qt_6_PRIVATE_API
libQt6Quick3D.so.6:_ZN30QQuick3DSpecularGlossyMaterial18specularMapChangedEv@@Qt_6_PRIVATE_API
libQt6Quick3D.so.6:_ZN30QQuick3DSpecularGlossyMaterial18updateSceneManagerEP20QQuick3DSceneManager@@Qt_6_PRIVATE_API
libQt6Quick3D.so.6:_ZN30QQuick3DSpecularGlossyMaterial19clearcoatMapChangedEv@@Qt_6_PRIVATE_API
libQt6Quick3D.so.6:_ZN30QQuick3DSpecularGlossyMaterial19heightAmountChangedEv@@Qt_6_PRIVATE_API
libQt6Quick3D.so.6:_ZN30QQuick3DSpecularGlossyMaterial19occlusionMapChangedEv@@Qt_6_PRIVATE_API
libQt6Quick3D.so.6:_ZN30QQuick3DSpecularGlossyMaterial19setAttenuationColorERK6QColor@@Qt_6_PRIVATE_API
libQt6Quick3D.so.6:_ZN30QQuick3DSpecularGlossyMaterial19setClearcoatChannelEN16QQuick3DMaterial21TextureChannelMappingE@@Qt_6_PRIVATE_API
libQt6Quick3D.so.6:_ZN30QQuick3DSpecularGlossyMaterial19setOcclusionChannelEN16QQuick3DMaterial21TextureChannelMappingE@@Qt_6_PRIVATE_API
libQt6Quick3D.so.6:_ZN30QQuick3DSpecularGlossyMaterial19setThicknessChannelEN16QQuick3DMaterial21TextureChannelMappingE@@Qt_6_PRIVATE_API
libQt6Quick3D.so.6:_ZN30QQuick3DSpecularGlossyMaterial19thicknessMapChangedEv@@Qt_6_PRIVATE_API
libQt6Quick3D.so.6:_ZN30QQuick3DSpecularGlossyMaterial20glossinessMapChangedEv@@Qt_6_PRIVATE_API
libQt6Quick3D.so.6:_ZN30QQuick3DSpecularGlossyMaterial20heightChannelChangedEv@@Qt_6_PRIVATE_API
libQt6Quick3D.so.6:_ZN30QQuick3DSpecularGlossyMaterial20setGlossinessChannelEN16QQuick3DMaterial21TextureChannelMappingE@@Qt_6_PRIVATE_API
libQt6Quick3D.so.6:_ZN30QQuick3DSpecularGlossyMaterial20specularColorChangedEv@@Qt_6_PRIVATE_API
libQt6Quick3D.so.6:_ZN30QQuick3DSpecularGlossyMaterial21emissiveFactorChangedEv@@Qt_6_PRIVATE_API
libQt6Quick3D.so.6:_ZN30QQuick3DSpecularGlossyMaterial21normalStrengthChangedEv@@Qt_6_PRIVATE_API
libQt6Quick3D.so.6:_ZN30QQuick3DSpecularGlossyMaterial21opacityChannelChangedEv@@Qt_6_PRIVATE_API
libQt6Quick3D.so.6:_ZN30QQuick3DSpecularGlossyMaterial21setClearcoatNormalMapEP15QQuick3DTexture@@Qt_6_PRIVATE_API
libQt6Quick3D.so.6:_ZN30QQuick3DSpecularGlossyMaterial21setTransmissionFactorEf@@Qt_6_PRIVATE_API
libQt6Quick3D.so.6:_ZN30QQuick3DSpecularGlossyMaterial22clearcoatAmountChangedEv@@Qt_6_PRIVATE_API
libQt6Quick3D.so.6:_ZN30QQuick3DSpecularGlossyMaterial22occlusionAmountChangedEv@@Qt_6_PRIVATE_API
libQt6Quick3D.so.6:_ZN30QQuick3DSpecularGlossyMaterial22setAttenuationDistanceEf@@Qt_6_PRIVATE_API
libQt6Quick3D.so.6:_ZN30QQuick3DSpecularGlossyMaterial22setMaxHeightMapSamplesEi@@Qt_6_PRIVATE_API
libQt6Quick3D.so.6:_ZN30QQuick3DSpecularGlossyMaterial22setMinHeightMapSamplesEi@@Qt_6_PRIVATE_API
libQt6Quick3D.so.6:_ZN30QQuick3DSpecularGlossyMaterial22setTransmissionChannelEN16QQuick3DMaterial21TextureChannelMappingE@@Qt_6_PRIVATE_API
libQt6Quick3D.so.6:_ZN30QQuick3DSpecularGlossyMaterial22setVertexColorsEnabledEb@@Qt_6_PRIVATE_API
libQt6Quick3D.so.6:_ZN30QQuick3DSpecularGlossyMaterial22thicknessFactorChangedEv@@Qt_6_PRIVATE_API
libQt6Quick3D.so.6:_ZN30QQuick3DSpecularGlossyMaterial22transmissionMapChangedEv@@Qt_6_PRIVATE_API
libQt6Quick3D.so.6:_ZN30QQuick3DSpecularGlossyMaterial23attenuationColorChangedEv@@Qt_6_PRIVATE_API
libQt6Quick3D.so.6:_ZN30QQuick3DSpecularGlossyMaterial23clearcoatChannelChangedEv@@Qt_6_PRIVATE_API
libQt6Quick3D.so.6:_ZN30QQuick3DSpecularGlossyMaterial23occlusionChannelChangedEv@@Qt_6_PRIVATE_API
libQt6Quick3D.so.6:_ZN30QQuick3DSpecularGlossyMaterial23thicknessChannelChangedEv@@Qt_6_PRIVATE_API
libQt6Quick3D.so.6:_ZN30QQuick3DSpecularGlossyMaterial24glossinessChannelChangedEv@@Qt_6_PRIVATE_API
libQt6Quick3D.so.6:_ZN30QQuick3DSpecularGlossyMaterial24setClearcoatRoughnessMapEP15QQuick3DTexture@@Qt_6_PRIVATE_API
libQt6Quick3D.so.6:_ZN30QQuick3DSpecularGlossyMaterial25clearcoatNormalMapChangedEv@@Qt_6_PRIVATE_API
libQt6Quick3D.so.6:_ZN30QQuick3DSpecularGlossyMaterial25transmissionFactorChangedEv@@Qt_6_PRIVATE_API
libQt6Quick3D.so.6:_ZN30QQuick3DSpecularGlossyMaterial26attenuationDistanceChangedEv@@Qt_6_PRIVATE_API
libQt6Quick3D.so.6:_ZN30QQuick3DSpecularGlossyMaterial26maxHeightMapSamplesChangedEv@@Qt_6_PRIVATE_API
libQt6Quick3D.so.6:_ZN30QQuick3DSpecularGlossyMaterial26minHeightMapSamplesChangedEv@@Qt_6_PRIVATE_API
libQt6Quick3D.so.6:_ZN30QQuick3DSpecularGlossyMaterial26transmissionChannelChangedEv@@Qt_6_PRIVATE_API
libQt6Quick3D.so.6:_ZN30QQuick3DSpecularGlossyMaterial26vertexColorsEnabledChangedEb@@Qt_6_PRIVATE_API
libQt6Quick3D.so.6:_ZN30QQuick3DSpecularGlossyMaterial27setClearcoatRoughnessAmountEf@@Qt_6_PRIVATE_API
libQt6Quick3D.so.6:_ZN30QQuick3DSpecularGlossyMaterial28clearcoatRoughnessMapChangedEv@@Qt_6_PRIVATE_API
libQt6Quick3D.so.6:_ZN30QQuick3DSpecularGlossyMaterial28setClearcoatRoughnessChannelEN16QQuick3DMaterial21TextureChannelMappingE@@Qt_6_PRIVATE_API
libQt6Quick3D.so.6:_ZN30QQuick3DSpecularGlossyMaterial31clearcoatRoughnessAmountChangedEv@@Qt_6_PRIVATE_API
libQt6Quick3D.so.6:_ZN30QQuick3DSpecularGlossyMaterial32clearcoatRoughnessChannelChangedEv@@Qt_6_PRIVATE_API
libQt6Quick3D.so.6:_ZN30QQuick3DSpecularGlossyMaterial9markDirtyENS_9DirtyTypeE@@Qt_6_PRIVATE_API
libQt6Quick3D.so.6:_ZN30QQuick3DSpecularGlossyMaterialC1EP14QQuick3DObject@@Qt_6_PRIVATE_API
libQt6Quick3D.so.6:_ZN30QQuick3DSpecularGlossyMaterialC2EP14QQuick3DObject@@Qt_6_PRIVATE_API
libQt6Quick3D.so.6:_ZN30QQuick3DSpecularGlossyMaterialD0Ev@@Qt_6_PRIVATE_API
libQt6Quick3D.so.6:_ZN30QQuick3DSpecularGlossyMaterialD1Ev@@Qt_6_PRIVATE_API
libQt6Quick3D.so.6:_ZN30QQuick3DSpecularGlossyMaterialD2Ev@@Qt_6_PRIVATE_API
libQt6Quick3D.so.6:_ZN31QQuick3DShaderUtilsTextureInput10setTextureEP15QQuick3DTexture@@Qt_6_PRIVATE_API
libQt6Quick3D.so.6:_ZN31QQuick3DShaderUtilsTextureInput11qt_metacallEN11QMetaObject4CallEiPPv@@Qt_6_PRIVATE_API
libQt6Quick3D.so.6:_ZN31QQuick3DShaderUtilsTextureInput11qt_metacastEPKc@@Qt_6_PRIVATE_API
libQt6Quick3D.so.6:_ZN31QQuick3DShaderUtilsTextureInput14enabledChangedEv@@Qt_6_PRIVATE_API
libQt6Quick3D.so.6:_ZN31QQuick3DShaderUtilsTextureInput14textureChangedEv@@Qt_6_PRIVATE_API
libQt6Quick3D.so.6:_ZN31QQuick3DShaderUtilsTextureInputC1EP7QObject@@Qt_6_PRIVATE_API
libQt6Quick3D.so.6:_ZN31QQuick3DShaderUtilsTextureInputC2EP7QObject@@Qt_6_PRIVATE_API
libQt6Quick3D.so.6:_ZN31QQuick3DShaderUtilsTextureInputD0Ev@@Qt_6_PRIVATE_API
libQt6Quick3D.so.6:_ZN31QQuick3DShaderUtilsTextureInputD1Ev@@Qt_6_PRIVATE_API
libQt6Quick3D.so.6:_ZN31QQuick3DShaderUtilsTextureInputD2Ev@@Qt_6_PRIVATE_API
libQt6Quick3D.so.6:_ZN32QQuick3DShaderUtilsRenderCommand11qt_metacallEN11QMetaObject4CallEiPPv@@Qt_6_PRIVATE_API
libQt6Quick3D.so.6:_ZN32QQuick3DShaderUtilsRenderCommand11qt_metacastEPKc@@Qt_6_PRIVATE_API
libQt6Quick3D.so.6:_ZN8QQuick3D18idealSurfaceFormatEi@@Qt_6
libQt6Quick3D.so.6:_ZNK11QQuick3DFog10depthCurveEv@@Qt_6_PRIVATE_API
libQt6Quick3D.so.6:_ZNK11QQuick3DFog10metaObjectEv@@Qt_6_PRIVATE_API
libQt6Quick3D.so.6:_ZNK11QQuick3DFog11heightCurveEv@@Qt_6_PRIVATE_API
libQt6Quick3D.so.6:_ZNK11QQuick3DFog12mostIntenseYEv@@Qt_6_PRIVATE_API
libQt6Quick3D.so.6:_ZNK11QQuick3DFog13leastIntenseYEv@@Qt_6_PRIVATE_API
libQt6Quick3D.so.6:_ZNK11QQuick3DFog13transmitCurveEv@@Qt_6_PRIVATE_API
libQt6Quick3D.so.6:_ZNK11QQuick3DFog14isDepthEnabledEv@@Qt_6_PRIVATE_API
libQt6Quick3D.so.6:_ZNK11QQuick3DFog15isHeightEnabledEv@@Qt_6_PRIVATE_API
libQt6Quick3D.so.6:_ZNK11QQuick3DFog17isTransmitEnabledEv@@Qt_6_PRIVATE_API
libQt6Quick3D.so.6:_ZNK11QQuick3DFog5colorEv@@Qt_6_PRIVATE_API
libQt6Quick3D.so.6:_ZNK11QQuick3DFog7densityEv@@Qt_6_PRIVATE_API
libQt6Quick3D.so.6:_ZNK11QQuick3DFog8depthFarEv@@Qt_6_PRIVATE_API
libQt6Quick3D.so.6:_ZNK11QQuick3DFog9depthNearEv@@Qt_6_PRIVATE_API
libQt6Quick3D.so.6:_ZNK11QQuick3DFog9isEnabledEv@@Qt_6_PRIVATE_API
libQt6Quick3D.so.6:_ZNK12QQuick3DNode10metaObjectEv@@Qt_6_PRIVATE_API
libQt6Quick3D.so.6:_ZNK12QQuick3DNode10parentNodeEv@@Qt_6_PRIVATE_API
libQt6Quick3D.so.6:_ZNK12QQuick3DNode10sceneScaleEv@@Qt_6_PRIVATE_API
libQt6Quick3D.so.6:_ZNK12QQuick3DNode11staticFlagsEv@@Qt_6_PRIVATE_API
libQt6Quick3D.so.6:_ZNK12QQuick3DNode12localOpacityEv@@Qt_6_PRIVATE_API
libQt6Quick3D.so.6:_ZNK12QQuick3DNode13eulerRotationEv@@Qt_6_PRIVATE_API
libQt6Quick3D.so.6:_ZNK12QQuick3DNode13scenePositionEv@@Qt_6_PRIVATE_API
libQt6Quick3D.so.6:_ZNK12QQuick3DNode13sceneRotationEv@@Qt_6_PRIVATE_API
libQt6Quick3D.so.6:_ZNK12QQuick3DNode14sceneTransformEv@@Qt_6_PRIVATE_API
libQt6Quick3D.so.6:_ZNK12QQuick3DNode17mapPositionToNodeEPKS_RK9QVector3D@@Qt_6_PRIVATE_API
libQt6Quick3D.so.6:_ZNK12QQuick3DNode18mapDirectionToNodeEPKS_RK9QVector3D@@Qt_6_PRIVATE_API
libQt6Quick3D.so.6:_ZNK12QQuick3DNode18mapPositionToSceneERK9QVector3D@@Qt_6_PRIVATE_API
libQt6Quick3D.so.6:_ZNK12QQuick3DNode19mapDirectionToSceneERK9QVector3D@@Qt_6_PRIVATE_API
libQt6Quick3D.so.6:_ZNK12QQuick3DNode19mapPositionFromNodeEPKS_RK9QVector3D@@Qt_6_PRIVATE_API
libQt6Quick3D.so.6:_ZNK12QQuick3DNode1xEv@@Qt_6_PRIVATE_API
libQt6Quick3D.so.6:_ZNK12QQuick3DNode1yEv@@Qt_6_PRIVATE_API
libQt6Quick3D.so.6:_ZNK12QQuick3DNode1zEv@@Qt_6_PRIVATE_API
libQt6Quick3D.so.6:_ZNK12QQuick3DNode20mapDirectionFromNodeEPKS_RK9QVector3D@@Qt_6_PRIVATE_API
libQt6Quick3D.so.6:_ZNK12QQuick3DNode20mapPositionFromSceneERK9QVector3D@@Qt_6_PRIVATE_API
libQt6Quick3D.so.6:_ZNK12QQuick3DNode21mapDirectionFromSceneERK9QVector3D@@Qt_6_PRIVATE_API
libQt6Quick3D.so.6:_ZNK12QQuick3DNode2upEv@@Qt_6_PRIVATE_API
libQt6Quick3D.so.6:_ZNK12QQuick3DNode5pivotEv@@Qt_6_PRIVATE_API
libQt6Quick3D.so.6:_ZNK12QQuick3DNode5rightEv@@Qt_6_PRIVATE_API
libQt6Quick3D.so.6:_ZNK12QQuick3DNode5scaleEv@@Qt_6_PRIVATE_API
libQt6Quick3D.so.6:_ZNK12QQuick3DNode7forwardEv@@Qt_6_PRIVATE_API
libQt6Quick3D.so.6:_ZNK12QQuick3DNode7visibleEv@@Qt_6_PRIVATE_API
libQt6Quick3D.so.6:_ZNK12QQuick3DNode8positionEv@@Qt_6_PRIVATE_API
libQt6Quick3D.so.6:_ZNK12QQuick3DNode8rotationEv@@Qt_6_PRIVATE_API
libQt6Quick3D.so.6:_ZNK12QQuick3DSkin10metaObjectEv@@Qt_6_PRIVATE_API
libQt6Quick3D.so.6:_ZNK12QQuick3DSkin16inverseBindPosesEv@@Qt_6_PRIVATE_API
libQt6Quick3D.so.6:_ZNK13QQuick3DJoint10metaObjectEv@@Qt_6_PRIVATE_API
libQt6Quick3D.so.6:_ZNK13QQuick3DJoint12skeletonRootEv@@Qt_6_PRIVATE_API
libQt6Quick3D.so.6:_ZNK13QQuick3DJoint5indexEv@@Qt_6_PRIVATE_API
libQt6Quick3D.so.6:_ZNK13QQuick3DModel10instancingEv@@Qt_6_PRIVATE_API
libQt6Quick3D.so.6:_ZNK13QQuick3DModel10metaObjectEv@@Qt_6_PRIVATE_API
libQt6Quick3D.so.6:_ZNK13QQuick3DModel12castsShadowsEv@@Qt_6_PRIVATE_API
libQt6Quick3D.so.6:_ZNK13QQuick3DModel12instanceRootEv@@Qt_6_PRIVATE_API
libQt6Quick3D.so.6:_ZNK13QQuick3DModel13bakedLightmapEv@@Qt_6_PRIVATE_API
libQt6Quick3D.so.6:_ZNK13QQuick3DModel15receivesShadowsEv@@Qt_6_PRIVATE_API
libQt6Quick3D.so.6:_ZNK13QQuick3DModel16castsReflectionsEv@@Qt_6_PRIVATE_API
libQt6Quick3D.so.6:_ZNK13QQuick3DModel16instancingLodMaxEv@@Qt_6_PRIVATE_API
libQt6Quick3D.so.6:_ZNK13QQuick3DModel16instancingLodMinEv@@Qt_6_PRIVATE_API
libQt6Quick3D.so.6:_ZNK13QQuick3DModel16inverseBindPosesEv@@Qt_6_PRIVATE_API
libQt6Quick3D.so.6:_ZNK13QQuick3DModel17levelOfDetailBiasEv@@Qt_6_PRIVATE_API
libQt6Quick3D.so.6:_ZNK13QQuick3DModel19receivesReflectionsEv@@Qt_6_PRIVATE_API
libQt6Quick3D.so.6:_ZNK13QQuick3DModel21isUsedInBakedLightingEv@@Qt_6_PRIVATE_API
libQt6Quick3D.so.6:_ZNK13QQuick3DModel22lightmapBaseResolutionEv@@Qt_6_PRIVATE_API
libQt6Quick3D.so.6:_ZNK13QQuick3DModel4skinEv@@Qt_6_PRIVATE_API
libQt6Quick3D.so.6:_ZNK13QQuick3DModel6boundsEv@@Qt_6_PRIVATE_API
libQt6Quick3D.so.6:_ZNK13QQuick3DModel6sourceEv@@Qt_6_PRIVATE_API
libQt6Quick3D.so.6:_ZNK13QQuick3DModel8geometryEv@@Qt_6_PRIVATE_API
libQt6Quick3D.so.6:_ZNK13QQuick3DModel8pickableEv@@Qt_6_PRIVATE_API
libQt6Quick3D.so.6:_ZNK13QQuick3DModel8skeletonEv@@Qt_6_PRIVATE_API
libQt6Quick3D.so.6:_ZNK13QQuick3DModel9depthBiasEv@@Qt_6_PRIVATE_API
libQt6Quick3D.so.6:_ZNK14QQuick3DCamera10lookAtNodeEv@@Qt_6_PRIVATE_API
libQt6Quick3D.so.6:_ZNK14QQuick3DCamera10metaObjectEv@@Qt_6_PRIVATE_API
libQt6Quick3D.so.6:_ZNK14QQuick3DCamera13mapToViewportERK9QVector3D@@Qt_6_PRIVATE_API
libQt6Quick3D.so.6:_ZNK14QQuick3DCamera15mapFromViewportERK9QVector3D@@Qt_6_PRIVATE_API
libQt6Quick3D.so.6:_ZNK14QQuick3DCamera17levelOfDetailBiasEv@@Qt_6_PRIVATE_API
libQt6Quick3D.so.6:_ZNK14QQuick3DCamera21frustumCullingEnabledEv@@Qt_6_PRIVATE_API
libQt6Quick3D.so.6:_ZNK14QQuick3DEffect10metaObjectEv@@Qt_6_PRIVATE_API
libQt6Quick3D.so.6:_ZNK14QQuick3DLoader10metaObjectEv@@Qt_6_PRIVATE_API
libQt6Quick3D.so.6:_ZNK14QQuick3DLoader12asynchronousEv@@Qt_6_PRIVATE_API
libQt6Quick3D.so.6:_ZNK14QQuick3DLoader15sourceComponentEv@@Qt_6_PRIVATE_API
libQt6Quick3D.so.6:_ZNK14QQuick3DLoader4itemEv@@Qt_6_PRIVATE_API
libQt6Quick3D.so.6:_ZNK14QQuick3DLoader6activeEv@@Qt_6_PRIVATE_API
libQt6Quick3D.so.6:_ZNK14QQuick3DLoader6sourceEv@@Qt_6_PRIVATE_API
libQt6Quick3D.so.6:_ZNK14QQuick3DLoader6statusEv@@Qt_6_PRIVATE_API
libQt6Quick3D.so.6:_ZNK14QQuick3DLoader8progressEv@@Qt_6_PRIVATE_API
libQt6Quick3D.so.6:_ZNK14QQuick3DObject10childItemsEv@@Qt_6
libQt6Quick3D.so.6:_ZNK14QQuick3DObject10metaObjectEv@@Qt_6
libQt6Quick3D.so.6:_ZNK14QQuick3DObject10parentItemEv@@Qt_6
libQt6Quick3D.so.6:_ZNK14QQuick3DObject19isComponentCompleteEv@@Qt_6
libQt6Quick3D.so.6:_ZNK14QQuick3DObject5stateEv@@Qt_6
libQt6Quick3D.so.6:_ZNK15QQuick3DTexture10metaObjectEv@@Qt_6_PRIVATE_API
libQt6Quick3D.so.6:_ZNK15QQuick3DTexture10rotationUVEv@@Qt_6_PRIVATE_API
libQt6Quick3D.so.6:_ZNK15QQuick3DTexture10sourceItemEv@@Qt_6_PRIVATE_API
libQt6Quick3D.so.6:_ZNK15QQuick3DTexture11depthTilingEv@@Qt_6_PRIVATE_API
libQt6Quick3D.so.6:_ZNK15QQuick3DTexture11mappingModeEv@@Qt_6_PRIVATE_API
libQt6Quick3D.so.6:_ZNK15QQuick3DTexture11textureDataEv@@Qt_6_PRIVATE_API
libQt6Quick3D.so.6:_ZNK15QQuick3DTexture14effectiveFlipVERK15QSSGRenderImage@@Qt_6_PRIVATE_API
libQt6Quick3D.so.6:_ZNK15QQuick3DTexture14verticalTilingEv@@Qt_6_PRIVATE_API
libQt6Quick3D.so.6:_ZNK15QQuick3DTexture15autoOrientationEv@@Qt_6_PRIVATE_API
libQt6Quick3D.so.6:_ZNK15QQuick3DTexture15generateMipmapsEv@@Qt_6_PRIVATE_API
libQt6Quick3D.so.6:_ZNK15QQuick3DTexture15textureProviderEv@@Qt_6_PRIVATE_API
libQt6Quick3D.so.6:_ZNK15QQuick3DTexture16horizontalTilingEv@@Qt_6_PRIVATE_API
libQt6Quick3D.so.6:_ZNK15QQuick3DTexture5flipUEv@@Qt_6_PRIVATE_API
libQt6Quick3D.so.6:_ZNK15QQuick3DTexture5flipVEv@@Qt_6_PRIVATE_API
libQt6Quick3D.so.6:_ZNK15QQuick3DTexture6pivotUEv@@Qt_6_PRIVATE_API
libQt6Quick3D.so.6:_ZNK15QQuick3DTexture6pivotVEv@@Qt_6_PRIVATE_API
libQt6Quick3D.so.6:_ZNK15QQuick3DTexture6scaleUEv@@Qt_6_PRIVATE_API
libQt6Quick3D.so.6:_ZNK15QQuick3DTexture6scaleVEv@@Qt_6_PRIVATE_API
libQt6Quick3D.so.6:_ZNK15QQuick3DTexture6sourceEv@@Qt_6_PRIVATE_API
libQt6Quick3D.so.6:_ZNK15QQuick3DTexture7indexUVEv@@Qt_6_PRIVATE_API
libQt6Quick3D.so.6:_ZNK15QQuick3DTexture9magFilterEv@@Qt_6_PRIVATE_API
libQt6Quick3D.so.6:_ZNK15QQuick3DTexture9minFilterEv@@Qt_6_PRIVATE_API
libQt6Quick3D.so.6:_ZNK15QQuick3DTexture9mipFilterEv@@Qt_6_PRIVATE_API
libQt6Quick3D.so.6:_ZNK15QQuick3DTexture9positionUEv@@Qt_6_PRIVATE_API
libQt6Quick3D.so.6:_ZNK15QQuick3DTexture9positionVEv@@Qt_6_PRIVATE_API
libQt6Quick3D.so.6:_ZNK16QQuick3DGeometry10metaObjectEv@@Qt_6
libQt6Quick3D.so.6:_ZNK16QQuick3DGeometry10subsetNameEi@@Qt_6
libQt6Quick3D.so.6:_ZNK16QQuick3DGeometry10targetDataEv@@Qt_6
libQt6Quick3D.so.6:_ZNK16QQuick3DGeometry10vertexDataEv@@Qt_6
libQt6Quick3D.so.6:_ZNK16QQuick3DGeometry11subsetCountEi@@Qt_6
libQt6Quick3D.so.6:_ZNK16QQuick3DGeometry11subsetCountEv@@Qt_6
libQt6Quick3D.so.6:_ZNK16QQuick3DGeometry12subsetOffsetEi@@Qt_6
libQt6Quick3D.so.6:_ZNK16QQuick3DGeometry13primitiveTypeEv@@Qt_6
libQt6Quick3D.so.6:_ZNK16QQuick3DGeometry14attributeCountEv@@Qt_6
libQt6Quick3D.so.6:_ZNK16QQuick3DGeometry15subsetBoundsMaxEi@@Qt_6
libQt6Quick3D.so.6:_ZNK16QQuick3DGeometry15subsetBoundsMinEi@@Qt_6
libQt6Quick3D.so.6:_ZNK16QQuick3DGeometry15targetAttributeEi@@Qt_6
libQt6Quick3D.so.6:_ZNK16QQuick3DGeometry20targetAttributeCountEv@@Qt_6
libQt6Quick3D.so.6:_ZNK16QQuick3DGeometry6strideEv@@Qt_6
libQt6Quick3D.so.6:_ZNK16QQuick3DGeometry9attributeEi@@Qt_6
libQt6Quick3D.so.6:_ZNK16QQuick3DGeometry9boundsMaxEv@@Qt_6
libQt6Quick3D.so.6:_ZNK16QQuick3DGeometry9boundsMinEv@@Qt_6
libQt6Quick3D.so.6:_ZNK16QQuick3DGeometry9indexDataEv@@Qt_6
libQt6Quick3D.so.6:_ZNK16QQuick3DMaterial10lightProbeEv@@Qt_6_PRIVATE_API
libQt6Quick3D.so.6:_ZNK16QQuick3DMaterial10metaObjectEv@@Qt_6_PRIVATE_API
libQt6Quick3D.so.6:_ZNK16QQuick3DMaterial13depthDrawModeEv@@Qt_6_PRIVATE_API
libQt6Quick3D.so.6:_ZNK16QQuick3DMaterial8cullModeEv@@Qt_6_PRIVATE_API
libQt6Quick3D.so.6:_ZNK16QQuick3DRepeater10metaObjectEv@@Qt_6_PRIVATE_API
libQt6Quick3D.so.6:_ZNK16QQuick3DRepeater5countEv@@Qt_6_PRIVATE_API
libQt6Quick3D.so.6:_ZNK16QQuick3DRepeater5modelEv@@Qt_6_PRIVATE_API
libQt6Quick3D.so.6:_ZNK16QQuick3DRepeater8delegateEv@@Qt_6_PRIVATE_API
libQt6Quick3D.so.6:_ZNK16QQuick3DRepeater8objectAtEi@@Qt_6_PRIVATE_API
libQt6Quick3D.so.6:_ZNK16QQuick3DSkeleton10metaObjectEv@@Qt_6_PRIVATE_API
libQt6Quick3D.so.6:_ZNK16QQuick3DViewport10metaObjectEv@@Qt_6_PRIVATE_API
libQt6Quick3D.so.6:_ZNK16QQuick3DViewport10rayPickAllERK9QVector3DS2_@@Qt_6_PRIVATE_API
libQt6Quick3D.so.6:_ZNK16QQuick3DViewport10renderModeEv@@Qt_6_PRIVATE_API
libQt6Quick3D.so.6:_ZNK16QQuick3DViewport11environmentEv@@Qt_6_PRIVATE_API
libQt6Quick3D.so.6:_ZNK16QQuick3DViewport11getRendererEv@@Qt_6_PRIVATE_API
libQt6Quick3D.so.6:_ZNK16QQuick3DViewport11importSceneEv@@Qt_6_PRIVATE_API
libQt6Quick3D.so.6:_ZNK16QQuick3DViewport11renderStatsEv@@Qt_6_PRIVATE_API
libQt6Quick3D.so.6:_ZNK16QQuick3DViewport12internalPickEP13QPointerEventRK9QVector3DS4_@@Qt_6_PRIVATE_API
libQt6Quick3D.so.6:_ZNK16QQuick3DViewport12mapTo3DSceneERK9QVector3D@@Qt_6_PRIVATE_API
libQt6Quick3D.so.6:_ZNK16QQuick3DViewport12renderFormatEv@@Qt_6_PRIVATE_API
libQt6Quick3D.so.6:_ZNK16QQuick3DViewport14checkIsVisibleEv@@Qt_6_PRIVATE_API
libQt6Quick3D.so.6:_ZNK16QQuick3DViewport14createRendererEv@@Qt_6_PRIVATE_API
libQt6Quick3D.so.6:_ZNK16QQuick3DViewport14getPickResultsEP21QQuick3DSceneRendererRK11QEventPoint@@Qt_6_PRIVATE_API
libQt6Quick3D.so.6:_ZNK16QQuick3DViewport14getPickResultsEP21QQuick3DSceneRendererRK9QVector3DS4_@@Qt_6_PRIVATE_API
libQt6Quick3D.so.6:_ZNK16QQuick3DViewport14mapFrom3DSceneERK9QVector3D@@Qt_6_PRIVATE_API
libQt6Quick3D.so.6:_ZNK16QQuick3DViewport15textureProviderEv@@Qt_6_PRIVATE_API
libQt6Quick3D.so.6:_ZNK16QQuick3DViewport16findFrontendNodeEPK21QSSGRenderGraphObject@@Qt_6_PRIVATE_API
libQt6Quick3D.so.6:_ZNK16QQuick3DViewport17isTextureProviderEv@@Qt_6_PRIVATE_API
libQt6Quick3D.so.6:_ZNK16QQuick3DViewport17processPickResultERK20QSSGRenderPickResult@@Qt_6_PRIVATE_API
libQt6Quick3D.so.6:_ZNK16QQuick3DViewport19getSubSceneRootItemEP16QQuick3DMaterial@@Qt_6_PRIVATE_API
libQt6Quick3D.so.6:_ZNK16QQuick3DViewport19processPickedObjectEPK21QSSGRenderGraphObjectRK20QSSGRenderPickResultiP13QPointerEventR8QFlatMapIP10QQuickItemNS_12SubsceneInfoESt4lessISA_E5QListISA_ESE_ISB_EE@@Qt_6_PRIVATE_API
libQt6Quick3D.so.6:_ZNK16QQuick3DViewport20effectiveTextureSizeEv@@Qt_6_PRIVATE_API
libQt6Quick3D.so.6:_ZNK16QQuick3DViewport20explicitTextureWidthEv@@Qt_6_PRIVATE_API
libQt6Quick3D.so.6:_ZNK16QQuick3DViewport21explicitTextureHeightEv@@Qt_6_PRIVATE_API
libQt6Quick3D.so.6:_ZNK16QQuick3DViewport23forwardEventToSubscenesEP13QPointerEventbP21QQuick3DSceneRendererRK8QFlatMapIP10QQuickItemNS_12SubsceneInfoESt4lessIS6_E5QListIS6_ESA_IS7_EE@@Qt_6_PRIVATE_API
libQt6Quick3D.so.6:_ZNK16QQuick3DViewport4pickEff@@Qt_6_PRIVATE_API
libQt6Quick3D.so.6:_ZNK16QQuick3DViewport5sceneEv@@Qt_6_PRIVATE_API
libQt6Quick3D.so.6:_ZNK16QQuick3DViewport6cameraEv@@Qt_6_PRIVATE_API
libQt6Quick3D.so.6:_ZNK16QQuick3DViewport7pickAllEff@@Qt_6_PRIVATE_API
libQt6Quick3D.so.6:_ZNK16QQuick3DViewport7rayPickERK9QVector3DS2_@@Qt_6_PRIVATE_API
libQt6Quick3D.so.6:_ZNK17QQuick3DSpotLight10linearFadeEv@@Qt_6_PRIVATE_API
libQt6Quick3D.so.6:_ZNK17QQuick3DSpotLight10metaObjectEv@@Qt_6_PRIVATE_API
libQt6Quick3D.so.6:_ZNK17QQuick3DSpotLight12constantFadeEv@@Qt_6_PRIVATE_API
libQt6Quick3D.so.6:_ZNK17QQuick3DSpotLight13quadraticFadeEv@@Qt_6_PRIVATE_API
libQt6Quick3D.so.6:_ZNK17QQuick3DSpotLight14innerConeAngleEv@@Qt_6_PRIVATE_API
libQt6Quick3D.so.6:_ZNK17QQuick3DSpotLight9coneAngleEv@@Qt_6_PRIVATE_API
libQt6Quick3D.so.6:_ZNK18QQuick3DInstancing10metaObjectEv@@Qt_6
libQt6Quick3D.so.6:_ZNK18QQuick3DInstancing15hasTransparencyEv@@Qt_6
libQt6Quick3D.so.6:_ZNK18QQuick3DInstancing18InstanceTableEntry11getPositionEv@@Qt_6
libQt6Quick3D.so.6:_ZNK18QQuick3DInstancing18InstanceTableEntry11getRotationEv@@Qt_6
libQt6Quick3D.so.6:_ZNK18QQuick3DInstancing18InstanceTableEntry8getColorEv@@Qt_6
libQt6Quick3D.so.6:_ZNK18QQuick3DInstancing18InstanceTableEntry8getScaleEv@@Qt_6
libQt6Quick3D.so.6:_ZNK18QQuick3DInstancing19depthSortingEnabledEv@@Qt_6
libQt6Quick3D.so.6:_ZNK18QQuick3DInstancing21instanceCountOverrideEv@@Qt_6
libQt6Quick3D.so.6:_ZNK18QQuick3DPickResult10uvPositionEv@@Qt_6_PRIVATE_API
libQt6Quick3D.so.6:_ZNK18QQuick3DPickResult11sceneNormalEv@@Qt_6_PRIVATE_API
libQt6Quick3D.so.6:_ZNK18QQuick3DPickResult13instanceIndexEv@@Qt_6_PRIVATE_API
libQt6Quick3D.so.6:_ZNK18QQuick3DPickResult13scenePositionEv@@Qt_6_PRIVATE_API
libQt6Quick3D.so.6:_ZNK18QQuick3DPickResult6normalEv@@Qt_6_PRIVATE_API
libQt6Quick3D.so.6:_ZNK18QQuick3DPickResult8distanceEv@@Qt_6_PRIVATE_API
libQt6Quick3D.so.6:_ZNK18QQuick3DPickResult8positionEv@@Qt_6_PRIVATE_API
libQt6Quick3D.so.6:_ZNK18QQuick3DPickResult9objectHitEv@@Qt_6_PRIVATE_API
libQt6Quick3D.so.6:_ZNK18QQuick3DPointLight10linearFadeEv@@Qt_6_PRIVATE_API
libQt6Quick3D.so.6:_ZNK18QQuick3DPointLight10metaObjectEv@@Qt_6_PRIVATE_API
libQt6Quick3D.so.6:_ZNK18QQuick3DPointLight12constantFadeEv@@Qt_6_PRIVATE_API
libQt6Quick3D.so.6:_ZNK18QQuick3DPointLight13quadraticFadeEv@@Qt_6_PRIVATE_API
libQt6Quick3D.so.6:_ZNK19QQuick3DLightmapper10metaObjectEv@@Qt_6_PRIVATE_API
libQt6Quick3D.so.6:_ZNK19QQuick3DLightmapper16opacityThresholdEv@@Qt_6_PRIVATE_API
libQt6Quick3D.so.6:_ZNK19QQuick3DLightmapper19indirectLightFactorEv@@Qt_6_PRIVATE_API
libQt6Quick3D.so.6:_ZNK19QQuick3DLightmapper21isAdaptiveBiasEnabledEv@@Qt_6_PRIVATE_API
libQt6Quick3D.so.6:_ZNK19QQuick3DLightmapper22isIndirectLightEnabledEv@@Qt_6_PRIVATE_API
libQt6Quick3D.so.6:_ZNK19QQuick3DLightmapper26indirectLightWorkgroupSizeEv@@Qt_6_PRIVATE_API
libQt6Quick3D.so.6:_ZNK19QQuick3DLightmapper4biasEv@@Qt_6_PRIVATE_API
libQt6Quick3D.so.6:_ZNK19QQuick3DLightmapper7bouncesEv@@Qt_6_PRIVATE_API
libQt6Quick3D.so.6:_ZNK19QQuick3DLightmapper7samplesEv@@Qt_6_PRIVATE_API
libQt6Quick3D.so.6:_ZNK19QQuick3DMorphTarget10attributesEv@@Qt_6_PRIVATE_API
libQt6Quick3D.so.6:_ZNK19QQuick3DMorphTarget10metaObjectEv@@Qt_6_PRIVATE_API
libQt6Quick3D.so.6:_ZNK19QQuick3DMorphTarget6weightEv@@Qt_6_PRIVATE_API
libQt6Quick3D.so.6:_ZNK19QQuick3DNodePrivate24isDirectionRelatedSignalERK11QMetaMethod@@Qt_6_PRIVATE_API
libQt6Quick3D.so.6:_ZNK19QQuick3DNodePrivate29isSceneTransformRelatedSignalERK11QMetaMethod@@Qt_6_PRIVATE_API
libQt6Quick3D.so.6:_ZNK19QQuick3DRenderStats10metaObjectEv@@Qt_6_PRIVATE_API
libQt6Quick3D.so.6:_ZNK19QQuick3DRenderStats10renderTimeEv@@Qt_6_PRIVATE_API
libQt6Quick3D.so.6:_ZNK19QQuick3DRenderStats11meshDetailsEv@@Qt_6_PRIVATE_API
libQt6Quick3D.so.6:_ZNK19QQuick3DRenderStats12maxFrameTimeEv@@Qt_6_PRIVATE_API
libQt6Quick3D.so.6:_ZNK19QQuick3DRenderStats12meshDataSizeEv@@Qt_6_PRIVATE_API
libQt6Quick3D.so.6:_ZNK19QQuick3DRenderStats13drawCallCountEv@@Qt_6_PRIVATE_API
libQt6Quick3D.so.6:_ZNK19QQuick3DRenderStats13imageDataSizeEv@@Qt_6_PRIVATE_API
libQt6Quick3D.so.6:_ZNK19QQuick3DRenderStats13pipelineCountEv@@Qt_6_PRIVATE_API
libQt6Quick3D.so.6:_ZNK19QQuick3DRenderStats13vmemUsedBytesEv@@Qt_6_PRIVATE_API
libQt6Quick3D.so.6:_ZNK19QQuick3DRenderStats14textureDetailsEv@@Qt_6_PRIVATE_API
libQt6Quick3D.so.6:_ZNK19QQuick3DRenderStats14vmemAllocCountEv@@Qt_6_PRIVATE_API
libQt6Quick3D.so.6:_ZNK19QQuick3DRenderStats15drawVertexCountEv@@Qt_6_PRIVATE_API
libQt6Quick3D.so.6:_ZNK19QQuick3DRenderStats15graphicsApiNameEv@@Qt_6_PRIVATE_API
libQt6Quick3D.so.6:_ZNK19QQuick3DRenderStats15renderPassCountEv@@Qt_6_PRIVATE_API
libQt6Quick3D.so.6:_ZNK19QQuick3DRenderStats17renderPassDetailsEv@@Qt_6_PRIVATE_API
libQt6Quick3D.so.6:_ZNK19QQuick3DRenderStats17renderPrepareTimeEv@@Qt_6_PRIVATE_API
libQt6Quick3D.so.6:_ZNK19QQuick3DRenderStats20effectGenerationTimeEv@@Qt_6_PRIVATE_API
libQt6Quick3D.so.6:_ZNK19QQuick3DRenderStats20lastCompletedGpuTimeEv@@Qt_6_PRIVATE_API
libQt6Quick3D.so.6:_ZNK19QQuick3DRenderStats20pipelineCreationTimeEv@@Qt_6_PRIVATE_API
libQt6Quick3D.so.6:_ZNK19QQuick3DRenderStats22materialGenerationTimeEv@@Qt_6_PRIVATE_API
libQt6Quick3D.so.6:_ZNK19QQuick3DRenderStats29extendedDataCollectionEnabledEv@@Qt_6_PRIVATE_API
libQt6Quick3D.so.6:_ZNK19QQuick3DRenderStats3fpsEv@@Qt_6_PRIVATE_API
libQt6Quick3D.so.6:_ZNK19QQuick3DRenderStats8syncTimeEv@@Qt_6_PRIVATE_API
libQt6Quick3D.so.6:_ZNK19QQuick3DRenderStats9frameTimeEv@@Qt_6_PRIVATE_API
libQt6Quick3D.so.6:_ZNK19QQuick3DRenderStats9timestampEv@@Qt_6_PRIVATE_API
libQt6Quick3D.so.6:_ZNK19QQuick3DTextureData10metaObjectEv@@Qt_6
libQt6Quick3D.so.6:_ZNK19QQuick3DTextureData11textureDataEv@@Qt_6
libQt6Quick3D.so.6:_ZNK19QQuick3DTextureData15hasTransparencyEv@@Qt_6
libQt6Quick3D.so.6:_ZNK19QQuick3DTextureData4sizeEv@@Qt_6
libQt6Quick3D.so.6:_ZNK19QQuick3DTextureData5depthEv@@Qt_6
libQt6Quick3D.so.6:_ZNK19QQuick3DTextureData6formatEv@@Qt_6
libQt6Quick3D.so.6:_ZNK20QQuick3DCustomCamera10metaObjectEv@@Qt_6_PRIVATE_API
libQt6Quick3D.so.6:_ZNK20QQuick3DCustomCamera10projectionEv@@Qt_6_PRIVATE_API
libQt6Quick3D.so.6:_ZNK20QQuick3DInstanceList10metaObjectEv@@Qt_6_PRIVATE_API
libQt6Quick3D.so.6:_ZNK20QQuick3DInstanceList13instanceCountEv@@Qt_6_PRIVATE_API
libQt6Quick3D.so.6:_ZNK20QQuick3DSceneManager10lookUpNodeEPK21QSSGRenderGraphObject@@Qt_6_PRIVATE_API
libQt6Quick3D.so.6:_ZNK20QQuick3DSceneManager10metaObjectEv@@Qt_6_PRIVATE_API
libQt6Quick3D.so.6:_ZNK21QQuick3DAbstractLight10brightnessEv@@Qt_6_PRIVATE_API
libQt6Quick3D.so.6:_ZNK21QQuick3DAbstractLight10metaObjectEv@@Qt_6_PRIVATE_API
libQt6Quick3D.so.6:_ZNK21QQuick3DAbstractLight10shadowBiasEv@@Qt_6_PRIVATE_API
libQt6Quick3D.so.6:_ZNK21QQuick3DAbstractLight11castsShadowEv@@Qt_6_PRIVATE_API
libQt6Quick3D.so.6:_ZNK21QQuick3DAbstractLight12ambientColorEv@@Qt_6_PRIVATE_API
libQt6Quick3D.so.6:_ZNK21QQuick3DAbstractLight12shadowFactorEv@@Qt_6_PRIVATE_API
libQt6Quick3D.so.6:_ZNK21QQuick3DAbstractLight12shadowFilterEv@@Qt_6_PRIVATE_API
libQt6Quick3D.so.6:_ZNK21QQuick3DAbstractLight12shadowMapFarEv@@Qt_6_PRIVATE_API
libQt6Quick3D.so.6:_ZNK21QQuick3DAbstractLight16shadowMapQualityEv@@Qt_6_PRIVATE_API
libQt6Quick3D.so.6:_ZNK21QQuick3DAbstractLight5colorEv@@Qt_6_PRIVATE_API
libQt6Quick3D.so.6:_ZNK21QQuick3DAbstractLight5scopeEv@@Qt_6_PRIVATE_API
libQt6Quick3D.so.6:_ZNK21QQuick3DAbstractLight8bakeModeEv@@Qt_6_PRIVATE_API
libQt6Quick3D.so.6:_ZNK21QQuick3DBakedLightmap10loadPrefixEv@@Qt_6_PRIVATE_API
libQt6Quick3D.so.6:_ZNK21QQuick3DBakedLightmap10metaObjectEv@@Qt_6_PRIVATE_API
libQt6Quick3D.so.6:_ZNK21QQuick3DBakedLightmap3keyEv@@Qt_6_PRIVATE_API
libQt6Quick3D.so.6:_ZNK21QQuick3DBakedLightmap9isEnabledEv@@Qt_6_PRIVATE_API
libQt6Quick3D.so.6:_ZNK21QQuick3DDebugSettings10metaObjectEv@@Qt_6_PRIVATE_API
libQt6Quick3D.so.6:_ZNK21QQuick3DDebugSettings16materialOverrideEv@@Qt_6_PRIVATE_API
libQt6Quick3D.so.6:_ZNK21QQuick3DDebugSettings16wireframeEnabledEv@@Qt_6_PRIVATE_API
libQt6Quick3D.so.6:_ZNK21QQuick3DFrustumCamera10metaObjectEv@@Qt_6_PRIVATE_API
libQt6Quick3D.so.6:_ZNK21QQuick3DFrustumCamera3topEv@@Qt_6_PRIVATE_API
libQt6Quick3D.so.6:_ZNK21QQuick3DFrustumCamera4leftEv@@Qt_6_PRIVATE_API
libQt6Quick3D.so.6:_ZNK21QQuick3DFrustumCamera5rightEv@@Qt_6_PRIVATE_API
libQt6Quick3D.so.6:_ZNK21QQuick3DFrustumCamera6bottomEv@@Qt_6_PRIVATE_API
libQt6Quick3D.so.6:_ZNK21QQuick3DLightmapBaker10metaObjectEv@@Qt_6_PRIVATE_API
libQt6Quick3D.so.6:_ZNK21QQuick3DLightmapBaker13BakingControl11isCancelledEv@@Qt_6_PRIVATE_API
libQt6Quick3D.so.6:_ZNK21QQuick3DObjectPrivate13dirtyToStringEv@@Qt_6_PRIVATE_API
libQt6Quick3D.so.6:_ZNK21QQuick3DObjectPrivate5stateEv@@Qt_6_PRIVATE_API
libQt6Quick3D.so.6:_ZNK22QQuick3DCubeMapTexture10metaObjectEv@@Qt_6_PRIVATE_API
libQt6Quick3D.so.6:_ZNK22QQuick3DCustomMaterial10metaObjectEv@@Qt_6_PRIVATE_API
libQt6Quick3D.so.6:_ZNK22QQuick3DCustomMaterial11alwaysDirtyEv@@Qt_6_PRIVATE_API
libQt6Quick3D.so.6:_ZNK22QQuick3DCustomMaterial11shadingModeEv@@Qt_6_PRIVATE_API
libQt6Quick3D.so.6:_ZNK22QQuick3DCustomMaterial12vertexShaderEv@@Qt_6_PRIVATE_API
libQt6Quick3D.so.6:_ZNK22QQuick3DCustomMaterial13dstAlphaBlendEv@@Qt_6_PRIVATE_API
libQt6Quick3D.so.6:_ZNK22QQuick3DCustomMaterial13srcAlphaBlendEv@@Qt_6_PRIVATE_API
libQt6Quick3D.so.6:_ZNK22QQuick3DCustomMaterial14fragmentShaderEv@@Qt_6_PRIVATE_API
libQt6Quick3D.so.6:_ZNK22QQuick3DCustomMaterial8dstBlendEv@@Qt_6_PRIVATE_API
libQt6Quick3D.so.6:_ZNK22QQuick3DCustomMaterial8srcBlendEv@@Qt_6_PRIVATE_API
libQt6Quick3D.so.6:_ZNK22QQuick3DCustomMaterial9lineWidthEv@@Qt_6_PRIVATE_API
libQt6Quick3D.so.6:_ZNK22QQuick3DFileInstancing10metaObjectEv@@Qt_6_PRIVATE_API
libQt6Quick3D.so.6:_ZNK22QQuick3DFileInstancing13instanceCountEv@@Qt_6_PRIVATE_API
libQt6Quick3D.so.6:_ZNK22QQuick3DFileInstancing6sourceEv@@Qt_6_PRIVATE_API
libQt6Quick3D.so.6:_ZNK22QQuick3DResourceLoader10metaObjectEv@@Qt_6_PRIVATE_API
libQt6Quick3D.so.6:_ZNK22QQuick3DResourceLoader11meshSourcesEv@@Qt_6_PRIVATE_API
libQt6Quick3D.so.6:_ZNK23QQuick3DDefaultMaterial10bumpAmountEv@@Qt_6_PRIVATE_API
libQt6Quick3D.so.6:_ZNK23QQuick3DDefaultMaterial10diffuseMapEv@@Qt_6_PRIVATE_API
libQt6Quick3D.so.6:_ZNK23QQuick3DDefaultMaterial10metaObjectEv@@Qt_6_PRIVATE_API
libQt6Quick3D.so.6:_ZNK23QQuick3DDefaultMaterial10opacityMapEv@@Qt_6_PRIVATE_API
libQt6Quick3D.so.6:_ZNK23QQuick3DDefaultMaterial11emissiveMapEv@@Qt_6_PRIVATE_API
libQt6Quick3D.so.6:_ZNK23QQuick3DDefaultMaterial11specularMapEv@@Qt_6_PRIVATE_API
libQt6Quick3D.so.6:_ZNK23QQuick3DDefaultMaterial12diffuseColorEv@@Qt_6_PRIVATE_API
libQt6Quick3D.so.6:_ZNK23QQuick3DDefaultMaterial12fresnelPowerEv@@Qt_6_PRIVATE_API
libQt6Quick3D.so.6:_ZNK23QQuick3DDefaultMaterial12roughnessMapEv@@Qt_6_PRIVATE_API
libQt6Quick3D.so.6:_ZNK23QQuick3DDefaultMaterial12specularTintEv@@Qt_6_PRIVATE_API
libQt6Quick3D.so.6:_ZNK23QQuick3DDefaultMaterial13specularModelEv@@Qt_6_PRIVATE_API
libQt6Quick3D.so.6:_ZNK23QQuick3DDefaultMaterial14emissiveFactorEv@@Qt_6_PRIVATE_API
libQt6Quick3D.so.6:_ZNK23QQuick3DDefaultMaterial14opacityChannelEv@@Qt_6_PRIVATE_API
libQt6Quick3D.so.6:_ZNK23QQuick3DDefaultMaterial14specularAmountEv@@Qt_6_PRIVATE_API
libQt6Quick3D.so.6:_ZNK23QQuick3DDefaultMaterial15translucencyMapEv@@Qt_6_PRIVATE_API
libQt6Quick3D.so.6:_ZNK23QQuick3DDefaultMaterial16diffuseLightWrapEv@@Qt_6_PRIVATE_API
libQt6Quick3D.so.6:_ZNK23QQuick3DDefaultMaterial16roughnessChannelEv@@Qt_6_PRIVATE_API
libQt6Quick3D.so.6:_ZNK23QQuick3DDefaultMaterial17indexOfRefractionEv@@Qt_6_PRIVATE_API
libQt6Quick3D.so.6:_ZNK23QQuick3DDefaultMaterial17specularRoughnessEv@@Qt_6_PRIVATE_API
libQt6Quick3D.so.6:_ZNK23QQuick3DDefaultMaterial18translucentFalloffEv@@Qt_6_PRIVATE_API
libQt6Quick3D.so.6:_ZNK23QQuick3DDefaultMaterial19translucencyChannelEv@@Qt_6_PRIVATE_API
libQt6Quick3D.so.6:_ZNK23QQuick3DDefaultMaterial19vertexColorsEnabledEv@@Qt_6_PRIVATE_API
libQt6Quick3D.so.6:_ZNK23QQuick3DDefaultMaterial21specularReflectionMapEv@@Qt_6_PRIVATE_API
libQt6Quick3D.so.6:_ZNK23QQuick3DDefaultMaterial7bumpMapEv@@Qt_6_PRIVATE_API
libQt6Quick3D.so.6:_ZNK23QQuick3DDefaultMaterial7opacityEv@@Qt_6_PRIVATE_API
libQt6Quick3D.so.6:_ZNK23QQuick3DDefaultMaterial8lightingEv@@Qt_6_PRIVATE_API
libQt6Quick3D.so.6:_ZNK23QQuick3DDefaultMaterial9blendModeEv@@Qt_6_PRIVATE_API
libQt6Quick3D.so.6:_ZNK23QQuick3DDefaultMaterial9lineWidthEv@@Qt_6_PRIVATE_API
libQt6Quick3D.so.6:_ZNK23QQuick3DDefaultMaterial9normalMapEv@@Qt_6_PRIVATE_API
libQt6Quick3D.so.6:_ZNK23QQuick3DDefaultMaterial9pointSizeEv@@Qt_6_PRIVATE_API
libQt6Quick3D.so.6:_ZNK23QQuick3DQuaternionUtils10metaObjectEv@@Qt_6_PRIVATE_API
libQt6Quick3D.so.6:_ZNK23QQuick3DReflectionProbe10clearColorEv@@Qt_6_PRIVATE_API
libQt6Quick3D.so.6:_ZNK23QQuick3DReflectionProbe10metaObjectEv@@Qt_6_PRIVATE_API
libQt6Quick3D.so.6:_ZNK23QQuick3DReflectionProbe11refreshModeEv@@Qt_6_PRIVATE_API
libQt6Quick3D.so.6:_ZNK23QQuick3DReflectionProbe11timeSlicingEv@@Qt_6_PRIVATE_API
libQt6Quick3D.so.6:_ZNK23QQuick3DReflectionProbe18parallaxCorrectionEv@@Qt_6_PRIVATE_API
libQt6Quick3D.so.6:_ZNK23QQuick3DReflectionProbe7boxSizeEv@@Qt_6_PRIVATE_API
libQt6Quick3D.so.6:_ZNK23QQuick3DReflectionProbe7qualityEv@@Qt_6_PRIVATE_API
libQt6Quick3D.so.6:_ZNK23QQuick3DReflectionProbe7textureEv@@Qt_6_PRIVATE_API
libQt6Quick3D.so.6:_ZNK23QQuick3DReflectionProbe9boxOffsetEv@@Qt_6_PRIVATE_API
libQt6Quick3D.so.6:_ZNK23QQuick3DReflectionProbe9debugViewEv@@Qt_6_PRIVATE_API
libQt6Quick3D.so.6:_ZNK23QQuick3DRenderExtension10metaObjectEv@@Qt_6
libQt6Quick3D.so.6:_ZNK24QQuick3DDirectionalLight10metaObjectEv@@Qt_6_PRIVATE_API
libQt6Quick3D.so.6:_ZNK24QQuick3DSceneEnvironment10aoDistanceEv@@Qt_6_PRIVATE_API
libQt6Quick3D.so.6:_ZNK24QQuick3DSceneEnvironment10aoSoftnessEv@@Qt_6_PRIVATE_API
libQt6Quick3D.so.6:_ZNK24QQuick3DSceneEnvironment10aoStrengthEv@@Qt_6_PRIVATE_API
libQt6Quick3D.so.6:_ZNK24QQuick3DSceneEnvironment10clearColorEv@@Qt_6_PRIVATE_API
libQt6Quick3D.so.6:_ZNK24QQuick3DSceneEnvironment10effectListEv@@Qt_6_PRIVATE_API
libQt6Quick3D.so.6:_ZNK24QQuick3DSceneEnvironment10lightProbeEv@@Qt_6_PRIVATE_API
libQt6Quick3D.so.6:_ZNK24QQuick3DSceneEnvironment10metaObjectEv@@Qt_6_PRIVATE_API
libQt6Quick3D.so.6:_ZNK24QQuick3DSceneEnvironment11gridEnabledEv@@Qt_6_PRIVATE_API
libQt6Quick3D.so.6:_ZNK24QQuick3DSceneEnvironment11lightmapperEv@@Qt_6_PRIVATE_API
libQt6Quick3D.so.6:_ZNK24QQuick3DSceneEnvironment11scissorRectEv@@Qt_6_PRIVATE_API
libQt6Quick3D.so.6:_ZNK24QQuick3DSceneEnvironment11tonemapModeEv@@Qt_6_PRIVATE_API
libQt6Quick3D.so.6:_ZNK24QQuick3DSceneEnvironment12aoSampleRateEv@@Qt_6_PRIVATE_API
libQt6Quick3D.so.6:_ZNK24QQuick3DSceneEnvironment12probeHorizonEv@@Qt_6_PRIVATE_API
libQt6Quick3D.so.6:_ZNK24QQuick3DSceneEnvironment13debugSettingsEv@@Qt_6_PRIVATE_API
libQt6Quick3D.so.6:_ZNK24QQuick3DSceneEnvironment13probeExposureEv@@Qt_6_PRIVATE_API
libQt6Quick3D.so.6:_ZNK24QQuick3DSceneEnvironment13skyBoxCubeMapEv@@Qt_6_PRIVATE_API
libQt6Quick3D.so.6:_ZNK24QQuick3DSceneEnvironment14backgroundModeEv@@Qt_6_PRIVATE_API
libQt6Quick3D.so.6:_ZNK24QQuick3DSceneEnvironment16antialiasingModeEv@@Qt_6_PRIVATE_API
libQt6Quick3D.so.6:_ZNK24QQuick3DSceneEnvironment16depthTestEnabledEv@@Qt_6_PRIVATE_API
libQt6Quick3D.so.6:_ZNK24QQuick3DSceneEnvironment16probeOrientationEv@@Qt_6_PRIVATE_API
libQt6Quick3D.so.6:_ZNK24QQuick3DSceneEnvironment16skyboxBlurAmountEv@@Qt_6_PRIVATE_API
libQt6Quick3D.so.6:_ZNK24QQuick3DSceneEnvironment17specularAAEnabledEv@@Qt_6_PRIVATE_API
libQt6Quick3D.so.6:_ZNK24QQuick3DSceneEnvironment17temporalAAEnabledEv@@Qt_6_PRIVATE_API
libQt6Quick3D.so.6:_ZNK24QQuick3DSceneEnvironment18temporalAAStrengthEv@@Qt_6_PRIVATE_API
libQt6Quick3D.so.6:_ZNK24QQuick3DSceneEnvironment19antialiasingQualityEv@@Qt_6_PRIVATE_API
libQt6Quick3D.so.6:_ZNK24QQuick3DSceneEnvironment19depthPrePassEnabledEv@@Qt_6_PRIVATE_API
libQt6Quick3D.so.6:_ZNK24QQuick3DSceneEnvironment20useBuiltinTonemapperEv@@Qt_6_PRIVATE_API
libQt6Quick3D.so.6:_ZNK24QQuick3DSceneEnvironment3fogEv@@Qt_6_PRIVATE_API
libQt6Quick3D.so.6:_ZNK24QQuick3DSceneEnvironment6aoBiasEv@@Qt_6_PRIVATE_API
libQt6Quick3D.so.6:_ZNK24QQuick3DSceneEnvironment8aoDitherEv@@Qt_6_PRIVATE_API
libQt6Quick3D.so.6:_ZNK24QQuick3DSceneEnvironment9aoEnabledEv@@Qt_6_PRIVATE_API
libQt6Quick3D.so.6:_ZNK24QQuick3DSceneEnvironment9gridFlagsEv@@Qt_6_PRIVATE_API
libQt6Quick3D.so.6:_ZNK24QQuick3DSceneEnvironment9gridScaleEv@@Qt_6_PRIVATE_API
libQt6Quick3D.so.6:_ZNK24QQuick3DWindowAttachment10metaObjectEv@@Qt_6_PRIVATE_API
libQt6Quick3D.so.6:_ZNK24QQuick3DWindowAttachment6windowEv@@Qt_6_PRIVATE_API
libQt6Quick3D.so.6:_ZNK25QQuick3DInstanceListEntry10metaObjectEv@@Qt_6_PRIVATE_API
libQt6Quick3D.so.6:_ZNK25QQuick3DPerspectiveCamera10metaObjectEv@@Qt_6_PRIVATE_API
libQt6Quick3D.so.6:_ZNK25QQuick3DPerspectiveCamera11fieldOfViewEv@@Qt_6_PRIVATE_API
libQt6Quick3D.so.6:_ZNK25QQuick3DPerspectiveCamera22fieldOfViewOrientationEv@@Qt_6_PRIVATE_API
libQt6Quick3D.so.6:_ZNK25QQuick3DPerspectiveCamera7clipFarEv@@Qt_6_PRIVATE_API
libQt6Quick3D.so.6:_ZNK25QQuick3DPerspectiveCamera8clipNearEv@@Qt_6_PRIVATE_API
libQt6Quick3D.so.6:_ZNK25QQuick3DShaderUtilsBuffer10metaObjectEv@@Qt_6_PRIVATE_API
libQt6Quick3D.so.6:_ZNK25QQuick3DShaderUtilsBuffer6formatEv@@Qt_6_PRIVATE_API
libQt6Quick3D.so.6:_ZNK25QQuick3DShaderUtilsShader10metaObjectEv@@Qt_6_PRIVATE_API
libQt6Quick3D.so.6:_ZNK26QQuick3DOrthographicCamera10metaObjectEv@@Qt_6_PRIVATE_API
libQt6Quick3D.so.6:_ZNK26QQuick3DOrthographicCamera21verticalMagnificationEv@@Qt_6_PRIVATE_API
libQt6Quick3D.so.6:_ZNK26QQuick3DOrthographicCamera23horizontalMagnificationEv@@Qt_6_PRIVATE_API
libQt6Quick3D.so.6:_ZNK26QQuick3DOrthographicCamera7clipFarEv@@Qt_6_PRIVATE_API
libQt6Quick3D.so.6:_ZNK26QQuick3DOrthographicCamera8clipNearEv@@Qt_6_PRIVATE_API
libQt6Quick3D.so.6:_ZNK26QQuick3DPrincipledMaterial10metaObjectEv@@Qt_6_PRIVATE_API
libQt6Quick3D.so.6:_ZNK26QQuick3DPrincipledMaterial10opacityMapEv@@Qt_6_PRIVATE_API
libQt6Quick3D.so.6:_ZNK26QQuick3DPrincipledMaterial11alphaCutoffEv@@Qt_6_PRIVATE_API
libQt6Quick3D.so.6:_ZNK26QQuick3DPrincipledMaterial11emissiveMapEv@@Qt_6_PRIVATE_API
libQt6Quick3D.so.6:_ZNK26QQuick3DPrincipledMaterial11specularMapEv@@Qt_6_PRIVATE_API
libQt6Quick3D.so.6:_ZNK26QQuick3DPrincipledMaterial12baseColorMapEv@@Qt_6_PRIVATE_API
libQt6Quick3D.so.6:_ZNK26QQuick3DPrincipledMaterial12clearcoatMapEv@@Qt_6_PRIVATE_API
libQt6Quick3D.so.6:_ZNK26QQuick3DPrincipledMaterial12heightAmountEv@@Qt_6_PRIVATE_API
libQt6Quick3D.so.6:_ZNK26QQuick3DPrincipledMaterial12metalnessMapEv@@Qt_6_PRIVATE_API
libQt6Quick3D.so.6:_ZNK26QQuick3DPrincipledMaterial12occlusionMapEv@@Qt_6_PRIVATE_API
libQt6Quick3D.so.6:_ZNK26QQuick3DPrincipledMaterial12roughnessMapEv@@Qt_6_PRIVATE_API
libQt6Quick3D.so.6:_ZNK26QQuick3DPrincipledMaterial12specularTintEv@@Qt_6_PRIVATE_API
libQt6Quick3D.so.6:_ZNK26QQuick3DPrincipledMaterial12thicknessMapEv@@Qt_6_PRIVATE_API
libQt6Quick3D.so.6:_ZNK26QQuick3DPrincipledMaterial13heightChannelEv@@Qt_6_PRIVATE_API
libQt6Quick3D.so.6:_ZNK26QQuick3DPrincipledMaterial14emissiveFactorEv@@Qt_6_PRIVATE_API
libQt6Quick3D.so.6:_ZNK26QQuick3DPrincipledMaterial14normalStrengthEv@@Qt_6_PRIVATE_API
libQt6Quick3D.so.6:_ZNK26QQuick3DPrincipledMaterial14opacityChannelEv@@Qt_6_PRIVATE_API
libQt6Quick3D.so.6:_ZNK26QQuick3DPrincipledMaterial14specularAmountEv@@Qt_6_PRIVATE_API
libQt6Quick3D.so.6:_ZNK26QQuick3DPrincipledMaterial15clearcoatAmountEv@@Qt_6_PRIVATE_API
libQt6Quick3D.so.6:_ZNK26QQuick3DPrincipledMaterial15occlusionAmountEv@@Qt_6_PRIVATE_API
libQt6Quick3D.so.6:_ZNK26QQuick3DPrincipledMaterial15thicknessFactorEv@@Qt_6_PRIVATE_API
libQt6Quick3D.so.6:_ZNK26QQuick3DPrincipledMaterial15transmissionMapEv@@Qt_6_PRIVATE_API
libQt6Quick3D.so.6:_ZNK26QQuick3DPrincipledMaterial16attenuationColorEv@@Qt_6_PRIVATE_API
libQt6Quick3D.so.6:_ZNK26QQuick3DPrincipledMaterial16clearcoatChannelEv@@Qt_6_PRIVATE_API
libQt6Quick3D.so.6:_ZNK26QQuick3DPrincipledMaterial16metalnessChannelEv@@Qt_6_PRIVATE_API
libQt6Quick3D.so.6:_ZNK26QQuick3DPrincipledMaterial16occlusionChannelEv@@Qt_6_PRIVATE_API
libQt6Quick3D.so.6:_ZNK26QQuick3DPrincipledMaterial16roughnessChannelEv@@Qt_6_PRIVATE_API
libQt6Quick3D.so.6:_ZNK26QQuick3DPrincipledMaterial16thicknessChannelEv@@Qt_6_PRIVATE_API
libQt6Quick3D.so.6:_ZNK26QQuick3DPrincipledMaterial17indexOfRefractionEv@@Qt_6_PRIVATE_API
libQt6Quick3D.so.6:_ZNK26QQuick3DPrincipledMaterial18clearcoatNormalMapEv@@Qt_6_PRIVATE_API
libQt6Quick3D.so.6:_ZNK26QQuick3DPrincipledMaterial18transmissionFactorEv@@Qt_6_PRIVATE_API
libQt6Quick3D.so.6:_ZNK26QQuick3DPrincipledMaterial19attenuationDistanceEv@@Qt_6_PRIVATE_API
libQt6Quick3D.so.6:_ZNK26QQuick3DPrincipledMaterial19maxHeightMapSamplesEv@@Qt_6_PRIVATE_API
libQt6Quick3D.so.6:_ZNK26QQuick3DPrincipledMaterial19minHeightMapSamplesEv@@Qt_6_PRIVATE_API
libQt6Quick3D.so.6:_ZNK26QQuick3DPrincipledMaterial19transmissionChannelEv@@Qt_6_PRIVATE_API
libQt6Quick3D.so.6:_ZNK26QQuick3DPrincipledMaterial19vertexColorsEnabledEv@@Qt_6_PRIVATE_API
libQt6Quick3D.so.6:_ZNK26QQuick3DPrincipledMaterial21clearcoatRoughnessMapEv@@Qt_6_PRIVATE_API
libQt6Quick3D.so.6:_ZNK26QQuick3DPrincipledMaterial21specularReflectionMapEv@@Qt_6_PRIVATE_API
libQt6Quick3D.so.6:_ZNK26QQuick3DPrincipledMaterial24clearcoatRoughnessAmountEv@@Qt_6_PRIVATE_API
libQt6Quick3D.so.6:_ZNK26QQuick3DPrincipledMaterial25clearcoatRoughnessChannelEv@@Qt_6_PRIVATE_API
libQt6Quick3D.so.6:_ZNK26QQuick3DPrincipledMaterial7opacityEv@@Qt_6_PRIVATE_API
libQt6Quick3D.so.6:_ZNK26QQuick3DPrincipledMaterial8lightingEv@@Qt_6_PRIVATE_API
libQt6Quick3D.so.6:_ZNK26QQuick3DPrincipledMaterial9alphaModeEv@@Qt_6_PRIVATE_API
libQt6Quick3D.so.6:_ZNK26QQuick3DPrincipledMaterial9baseColorEv@@Qt_6_PRIVATE_API
libQt6Quick3D.so.6:_ZNK26QQuick3DPrincipledMaterial9blendModeEv@@Qt_6_PRIVATE_API
libQt6Quick3D.so.6:_ZNK26QQuick3DPrincipledMaterial9heightMapEv@@Qt_6_PRIVATE_API
libQt6Quick3D.so.6:_ZNK26QQuick3DPrincipledMaterial9lineWidthEv@@Qt_6_PRIVATE_API
libQt6Quick3D.so.6:_ZNK26QQuick3DPrincipledMaterial9metalnessEv@@Qt_6_PRIVATE_API
libQt6Quick3D.so.6:_ZNK26QQuick3DPrincipledMaterial9normalMapEv@@Qt_6_PRIVATE_API
libQt6Quick3D.so.6:_ZNK26QQuick3DPrincipledMaterial9pointSizeEv@@Qt_6_PRIVATE_API
libQt6Quick3D.so.6:_ZNK26QQuick3DPrincipledMaterial9roughnessEv@@Qt_6_PRIVATE_API
libQt6Quick3D.so.6:_ZNK27QQuick3DQuaternionAnimation10metaObjectEv@@Qt_6_PRIVATE_API
libQt6Quick3D.so.6:_ZNK27QQuick3DQuaternionAnimation11toXRotationEv@@Qt_6_PRIVATE_API
libQt6Quick3D.so.6:_ZNK27QQuick3DQuaternionAnimation11toYRotationEv@@Qt_6_PRIVATE_API
libQt6Quick3D.so.6:_ZNK27QQuick3DQuaternionAnimation11toZRotationEv@@Qt_6_PRIVATE_API
libQt6Quick3D.so.6:_ZNK27QQuick3DQuaternionAnimation13fromXRotationEv@@Qt_6_PRIVATE_API
libQt6Quick3D.so.6:_ZNK27QQuick3DQuaternionAnimation13fromYRotationEv@@Qt_6_PRIVATE_API
libQt6Quick3D.so.6:_ZNK27QQuick3DQuaternionAnimation13fromZRotationEv@@Qt_6_PRIVATE_API
libQt6Quick3D.so.6:_ZNK27QQuick3DQuaternionAnimation2toEv@@Qt_6_PRIVATE_API
libQt6Quick3D.so.6:_ZNK27QQuick3DQuaternionAnimation4fromEv@@Qt_6_PRIVATE_API
libQt6Quick3D.so.6:_ZNK27QQuick3DQuaternionAnimation4typeEv@@Qt_6_PRIVATE_API
libQt6Quick3D.so.6:_ZNK29QQuick3DShaderUtilsApplyValue10metaObjectEv@@Qt_6_PRIVATE_API
libQt6Quick3D.so.6:_ZNK29QQuick3DShaderUtilsRenderPass10metaObjectEv@@Qt_6_PRIVATE_API
libQt6Quick3D.so.6:_ZNK30QQuick3DShaderUtilsBufferInput10metaObjectEv@@Qt_6_PRIVATE_API
libQt6Quick3D.so.6:_ZNK30QQuick3DSpecularGlossyMaterial10glossinessEv@@Qt_6_PRIVATE_API
libQt6Quick3D.so.6:_ZNK30QQuick3DSpecularGlossyMaterial10metaObjectEv@@Qt_6_PRIVATE_API
libQt6Quick3D.so.6:_ZNK30QQuick3DSpecularGlossyMaterial10opacityMapEv@@Qt_6_PRIVATE_API
libQt6Quick3D.so.6:_ZNK30QQuick3DSpecularGlossyMaterial11albedoColorEv@@Qt_6_PRIVATE_API
libQt6Quick3D.so.6:_ZNK30QQuick3DSpecularGlossyMaterial11alphaCutoffEv@@Qt_6_PRIVATE_API
libQt6Quick3D.so.6:_ZNK30QQuick3DSpecularGlossyMaterial11emissiveMapEv@@Qt_6_PRIVATE_API
libQt6Quick3D.so.6:_ZNK30QQuick3DSpecularGlossyMaterial11specularMapEv@@Qt_6_PRIVATE_API
libQt6Quick3D.so.6:_ZNK30QQuick3DSpecularGlossyMaterial12clearcoatMapEv@@Qt_6_PRIVATE_API
libQt6Quick3D.so.6:_ZNK30QQuick3DSpecularGlossyMaterial12heightAmountEv@@Qt_6_PRIVATE_API
libQt6Quick3D.so.6:_ZNK30QQuick3DSpecularGlossyMaterial12occlusionMapEv@@Qt_6_PRIVATE_API
libQt6Quick3D.so.6:_ZNK30QQuick3DSpecularGlossyMaterial12thicknessMapEv@@Qt_6_PRIVATE_API
libQt6Quick3D.so.6:_ZNK30QQuick3DSpecularGlossyMaterial13glossinessMapEv@@Qt_6_PRIVATE_API
libQt6Quick3D.so.6:_ZNK30QQuick3DSpecularGlossyMaterial13heightChannelEv@@Qt_6_PRIVATE_API
libQt6Quick3D.so.6:_ZNK30QQuick3DSpecularGlossyMaterial13specularColorEv@@Qt_6_PRIVATE_API
libQt6Quick3D.so.6:_ZNK30QQuick3DSpecularGlossyMaterial14emissiveFactorEv@@Qt_6_PRIVATE_API
libQt6Quick3D.so.6:_ZNK30QQuick3DSpecularGlossyMaterial14normalStrengthEv@@Qt_6_PRIVATE_API
libQt6Quick3D.so.6:_ZNK30QQuick3DSpecularGlossyMaterial14opacityChannelEv@@Qt_6_PRIVATE_API
libQt6Quick3D.so.6:_ZNK30QQuick3DSpecularGlossyMaterial15clearcoatAmountEv@@Qt_6_PRIVATE_API
libQt6Quick3D.so.6:_ZNK30QQuick3DSpecularGlossyMaterial15occlusionAmountEv@@Qt_6_PRIVATE_API
libQt6Quick3D.so.6:_ZNK30QQuick3DSpecularGlossyMaterial15thicknessFactorEv@@Qt_6_PRIVATE_API
libQt6Quick3D.so.6:_ZNK30QQuick3DSpecularGlossyMaterial15transmissionMapEv@@Qt_6_PRIVATE_API
libQt6Quick3D.so.6:_ZNK30QQuick3DSpecularGlossyMaterial16attenuationColorEv@@Qt_6_PRIVATE_API
libQt6Quick3D.so.6:_ZNK30QQuick3DSpecularGlossyMaterial16clearcoatChannelEv@@Qt_6_PRIVATE_API
libQt6Quick3D.so.6:_ZNK30QQuick3DSpecularGlossyMaterial16occlusionChannelEv@@Qt_6_PRIVATE_API
libQt6Quick3D.so.6:_ZNK30QQuick3DSpecularGlossyMaterial16thicknessChannelEv@@Qt_6_PRIVATE_API
libQt6Quick3D.so.6:_ZNK30QQuick3DSpecularGlossyMaterial17glossinessChannelEv@@Qt_6_PRIVATE_API
libQt6Quick3D.so.6:_ZNK30QQuick3DSpecularGlossyMaterial18clearcoatNormalMapEv@@Qt_6_PRIVATE_API
libQt6Quick3D.so.6:_ZNK30QQuick3DSpecularGlossyMaterial18transmissionFactorEv@@Qt_6_PRIVATE_API
libQt6Quick3D.so.6:_ZNK30QQuick3DSpecularGlossyMaterial19attenuationDistanceEv@@Qt_6_PRIVATE_API
libQt6Quick3D.so.6:_ZNK30QQuick3DSpecularGlossyMaterial19maxHeightMapSamplesEv@@Qt_6_PRIVATE_API
libQt6Quick3D.so.6:_ZNK30QQuick3DSpecularGlossyMaterial19minHeightMapSamplesEv@@Qt_6_PRIVATE_API
libQt6Quick3D.so.6:_ZNK30QQuick3DSpecularGlossyMaterial19transmissionChannelEv@@Qt_6_PRIVATE_API
libQt6Quick3D.so.6:_ZNK30QQuick3DSpecularGlossyMaterial19vertexColorsEnabledEv@@Qt_6_PRIVATE_API
libQt6Quick3D.so.6:_ZNK30QQuick3DSpecularGlossyMaterial21clearcoatRoughnessMapEv@@Qt_6_PRIVATE_API
libQt6Quick3D.so.6:_ZNK30QQuick3DSpecularGlossyMaterial24clearcoatRoughnessAmountEv@@Qt_6_PRIVATE_API
libQt6Quick3D.so.6:_ZNK30QQuick3DSpecularGlossyMaterial25clearcoatRoughnessChannelEv@@Qt_6_PRIVATE_API
libQt6Quick3D.so.6:_ZNK30QQuick3DSpecularGlossyMaterial7opacityEv@@Qt_6_PRIVATE_API
libQt6Quick3D.so.6:_ZNK30QQuick3DSpecularGlossyMaterial8lightingEv@@Qt_6_PRIVATE_API
libQt6Quick3D.so.6:_ZNK30QQuick3DSpecularGlossyMaterial9albedoMapEv@@Qt_6_PRIVATE_API
libQt6Quick3D.so.6:_ZNK30QQuick3DSpecularGlossyMaterial9alphaModeEv@@Qt_6_PRIVATE_API
libQt6Quick3D.so.6:_ZNK30QQuick3DSpecularGlossyMaterial9blendModeEv@@Qt_6_PRIVATE_API
libQt6Quick3D.so.6:_ZNK30QQuick3DSpecularGlossyMaterial9heightMapEv@@Qt_6_PRIVATE_API
libQt6Quick3D.so.6:_ZNK30QQuick3DSpecularGlossyMaterial9lineWidthEv@@Qt_6_PRIVATE_API
libQt6Quick3D.so.6:_ZNK30QQuick3DSpecularGlossyMaterial9normalMapEv@@Qt_6_PRIVATE_API
libQt6Quick3D.so.6:_ZNK30QQuick3DSpecularGlossyMaterial9pointSizeEv@@Qt_6_PRIVATE_API
libQt6Quick3D.so.6:_ZNK31QQuick3DShaderUtilsTextureInput10metaObjectEv@@Qt_6_PRIVATE_API
libQt6Quick3D.so.6:_ZNK32QQuick3DShaderUtilsRenderCommand10metaObjectEv@@Qt_6_PRIVATE_API
libQt6Quick3D.so.6:_ZThn16_N12QQuick3DNode17componentCompleteEv@@Qt_6_PRIVATE_API
libQt6Quick3D.so.6:_ZThn16_N12QQuick3DNodeD0Ev@@Qt_6_PRIVATE_API
libQt6Quick3D.so.6:_ZThn16_N12QQuick3DNodeD1Ev@@Qt_6_PRIVATE_API
libQt6Quick3D.so.6:_ZThn16_N12QQuick3DSkinD0Ev@@Qt_6_PRIVATE_API
libQt6Quick3D.so.6:_ZThn16_N12QQuick3DSkinD1Ev@@Qt_6_PRIVATE_API
libQt6Quick3D.so.6:_ZThn16_N13QQuick3DJointD0Ev@@Qt_6_PRIVATE_API
libQt6Quick3D.so.6:_ZThn16_N13QQuick3DJointD1Ev@@Qt_6_PRIVATE_API
libQt6Quick3D.so.6:_ZThn16_N13QQuick3DModelD0Ev@@Qt_6_PRIVATE_API
libQt6Quick3D.so.6:_ZThn16_N13QQuick3DModelD1Ev@@Qt_6_PRIVATE_API
libQt6Quick3D.so.6:_ZThn16_N14QQuick3DLoader17componentCompleteEv@@Qt_6_PRIVATE_API
libQt6Quick3D.so.6:_ZThn16_N14QQuick3DLoaderD0Ev@@Qt_6_PRIVATE_API
libQt6Quick3D.so.6:_ZThn16_N14QQuick3DLoaderD1Ev@@Qt_6_PRIVATE_API
libQt6Quick3D.so.6:_ZThn16_N14QQuick3DObject10classBeginEv@@Qt_6
libQt6Quick3D.so.6:_ZThn16_N14QQuick3DObject17componentCompleteEv@@Qt_6
libQt6Quick3D.so.6:_ZThn16_N14QQuick3DObjectD0Ev@@Qt_6
libQt6Quick3D.so.6:_ZThn16_N14QQuick3DObjectD1Ev@@Qt_6
libQt6Quick3D.so.6:_ZThn16_N15QQuick3DTextureD0Ev@@Qt_6_PRIVATE_API
libQt6Quick3D.so.6:_ZThn16_N15QQuick3DTextureD1Ev@@Qt_6_PRIVATE_API
libQt6Quick3D.so.6:_ZThn16_N16QQuick3DGeometryD0Ev@@Qt_6
libQt6Quick3D.so.6:_ZThn16_N16QQuick3DGeometryD1Ev@@Qt_6
libQt6Quick3D.so.6:_ZThn16_N16QQuick3DMaterialD0Ev@@Qt_6_PRIVATE_API
libQt6Quick3D.so.6:_ZThn16_N16QQuick3DMaterialD1Ev@@Qt_6_PRIVATE_API
libQt6Quick3D.so.6:_ZThn16_N16QQuick3DRepeater17componentCompleteEv@@Qt_6_PRIVATE_API
libQt6Quick3D.so.6:_ZThn16_N16QQuick3DRepeaterD0Ev@@Qt_6_PRIVATE_API
libQt6Quick3D.so.6:_ZThn16_N16QQuick3DRepeaterD1Ev@@Qt_6_PRIVATE_API
libQt6Quick3D.so.6:_ZThn16_N16QQuick3DSkeletonD0Ev@@Qt_6_PRIVATE_API
libQt6Quick3D.so.6:_ZThn16_N16QQuick3DSkeletonD1Ev@@Qt_6_PRIVATE_API
libQt6Quick3D.so.6:_ZThn16_N16QQuick3DViewport17componentCompleteEv@@Qt_6_PRIVATE_API
libQt6Quick3D.so.6:_ZThn16_N16QQuick3DViewportD0Ev@@Qt_6_PRIVATE_API
libQt6Quick3D.so.6:_ZThn16_N16QQuick3DViewportD1Ev@@Qt_6_PRIVATE_API
libQt6Quick3D.so.6:_ZThn16_N18QQuick3DInstancingD0Ev@@Qt_6
libQt6Quick3D.so.6:_ZThn16_N18QQuick3DInstancingD1Ev@@Qt_6
libQt6Quick3D.so.6:_ZThn16_N19QQuick3DMorphTargetD0Ev@@Qt_6_PRIVATE_API
libQt6Quick3D.so.6:_ZThn16_N19QQuick3DMorphTargetD1Ev@@Qt_6_PRIVATE_API
libQt6Quick3D.so.6:_ZThn16_N19QQuick3DTextureDataD0Ev@@Qt_6
libQt6Quick3D.so.6:_ZThn16_N19QQuick3DTextureDataD1Ev@@Qt_6
libQt6Quick3D.so.6:_ZThn16_N20QQuick3DInstanceListD0Ev@@Qt_6_PRIVATE_API
libQt6Quick3D.so.6:_ZThn16_N20QQuick3DInstanceListD1Ev@@Qt_6_PRIVATE_API
libQt6Quick3D.so.6:_ZThn16_N21QQuick3DAbstractLightD0Ev@@Qt_6_PRIVATE_API
libQt6Quick3D.so.6:_ZThn16_N21QQuick3DAbstractLightD1Ev@@Qt_6_PRIVATE_API
libQt6Quick3D.so.6:_ZThn16_N22QQuick3DCubeMapTextureD0Ev@@Qt_6_PRIVATE_API
libQt6Quick3D.so.6:_ZThn16_N22QQuick3DCubeMapTextureD1Ev@@Qt_6_PRIVATE_API
libQt6Quick3D.so.6:_ZThn16_N22QQuick3DCustomMaterialD0Ev@@Qt_6_PRIVATE_API
libQt6Quick3D.so.6:_ZThn16_N22QQuick3DCustomMaterialD1Ev@@Qt_6_PRIVATE_API
libQt6Quick3D.so.6:_ZThn16_N22QQuick3DFileInstancingD0Ev@@Qt_6_PRIVATE_API
libQt6Quick3D.so.6:_ZThn16_N22QQuick3DFileInstancingD1Ev@@Qt_6_PRIVATE_API
libQt6Quick3D.so.6:_ZThn16_N23QQuick3DDefaultMaterialD0Ev@@Qt_6_PRIVATE_API
libQt6Quick3D.so.6:_ZThn16_N23QQuick3DDefaultMaterialD1Ev@@Qt_6_PRIVATE_API
libQt6Quick3D.so.6:_ZThn16_N23QQuick3DRenderExtensionD0Ev@@Qt_6
libQt6Quick3D.so.6:_ZThn16_N23QQuick3DRenderExtensionD1Ev@@Qt_6
libQt6Quick3D.so.6:_ZThn16_N24QQuick3DSceneEnvironmentD0Ev@@Qt_6_PRIVATE_API
libQt6Quick3D.so.6:_ZThn16_N24QQuick3DSceneEnvironmentD1Ev@@Qt_6_PRIVATE_API
libQt6Quick3D.so.6:_ZThn16_N26QQuick3DPrincipledMaterialD0Ev@@Qt_6_PRIVATE_API
libQt6Quick3D.so.6:_ZThn16_N26QQuick3DPrincipledMaterialD1Ev@@Qt_6_PRIVATE_API
libQt6Quick3D.so.6:_ZThn16_N30QQuick3DSpecularGlossyMaterialD0Ev@@Qt_6_PRIVATE_API
libQt6Quick3D.so.6:_ZThn16_N30QQuick3DSpecularGlossyMaterialD1Ev@@Qt_6_PRIVATE_API
libQt6Quick3D.so.6:_ZThn32_N15QQuick3DTexture19itemGeometryChangedEP10QQuickItem20QQuickGeometryChangeRK6QRectF@@Qt_6_PRIVATE_API
libQt6Quick3D.so.6:_ZThn32_N15QQuick3DTextureD0Ev@@Qt_6_PRIVATE_API
libQt6Quick3D.so.6:_ZThn32_N15QQuick3DTextureD1Ev@@Qt_6_PRIVATE_API
libQt6Quick3D.so.6:_ZThn32_N22QQuick3DCubeMapTextureD0Ev@@Qt_6_PRIVATE_API
libQt6Quick3D.so.6:_ZThn32_N22QQuick3DCubeMapTextureD1Ev@@Qt_6_PRIVATE_API
libQt6Quick3DAssetImport.so.6:NonQt
libQt6Quick3DAssetImport.so.6:Qt_6
libQt6Quick3DAssetImport.so.6:Qt_6_PRIVATE_API
libQt6Quick3DAssetImport.so.6:_ZN17QSSGAssetImporter11qt_metacallEN11QMetaObject4CallEiPPv@@Qt_6_PRIVATE_API
libQt6Quick3DAssetImport.so.6:_ZN17QSSGAssetImporter11qt_metacastEPKc@@Qt_6_PRIVATE_API
libQt6Quick3DAssetImport.so.6:_ZN22QSSGAssetImportManager10importFileERK4QUrlRN13QSSGSceneDesc5SceneEP7QString@@Qt_6_PRIVATE_API
libQt6Quick3DAssetImport.so.6:_ZN22QSSGAssetImportManager10importFileERK4QUrlRN13QSSGSceneDesc5SceneERK11QJsonObjectP7QString@@Qt_6_PRIVATE_API
libQt6Quick3DAssetImport.so.6:_ZN22QSSGAssetImportManager10importFileERK7QStringRK4QDirPS0_@@Qt_6_PRIVATE_API
libQt6Quick3DAssetImport.so.6:_ZN22QSSGAssetImportManager10importFileERK7QStringRK4QDirRK11QJsonObjectPS0_@@Qt_6_PRIVATE_API
libQt6Quick3DAssetImport.so.6:_ZN22QSSGAssetImportManager11qt_metacallEN11QMetaObject4CallEiPPv@@Qt_6_PRIVATE_API
libQt6Quick3DAssetImport.so.6:_ZN22QSSGAssetImportManager11qt_metacastEPKc@@Qt_6_PRIVATE_API
libQt6Quick3DAssetImport.so.6:_ZN22QSSGAssetImportManager17getOptionsForFileERK7QString@@Qt_6_PRIVATE_API
libQt6Quick3DAssetImport.so.6:_ZN22QSSGAssetImportManagerC1EP7QObject@@Qt_6_PRIVATE_API
libQt6Quick3DAssetImport.so.6:_ZN22QSSGAssetImportManagerC2EP7QObject@@Qt_6_PRIVATE_API
libQt6Quick3DAssetImport.so.6:_ZN22QSSGAssetImportManagerD0Ev@@Qt_6_PRIVATE_API
libQt6Quick3DAssetImport.so.6:_ZN22QSSGAssetImportManagerD1Ev@@Qt_6_PRIVATE_API
libQt6Quick3DAssetImport.so.6:_ZN22QSSGAssetImportManagerD2Ev@@Qt_6_PRIVATE_API
libQt6Quick3DAssetImport.so.6:_ZN23QSSGAssetImporterPlugin11qt_metacallEN11QMetaObject4CallEiPPv@@Qt_6_PRIVATE_API
libQt6Quick3DAssetImport.so.6:_ZN23QSSGAssetImporterPlugin11qt_metacastEPKc@@Qt_6_PRIVATE_API
libQt6Quick3DAssetImport.so.6:_ZN24QSSGAssetImporterFactory4keysEv@@Qt_6_PRIVATE_API
libQt6Quick3DAssetImport.so.6:_ZN24QSSGAssetImporterFactory6createERK7QStringRK5QListIS0_E@@Qt_6_PRIVATE_API
libQt6Quick3DAssetImport.so.6:_ZNK17QSSGAssetImporter10metaObjectEv@@Qt_6_PRIVATE_API
libQt6Quick3DAssetImport.so.6:_ZNK22QSSGAssetImportManager10metaObjectEv@@Qt_6_PRIVATE_API
libQt6Quick3DAssetImport.so.6:_ZNK22QSSGAssetImportManager13getAllOptionsEv@@Qt_6_PRIVATE_API
libQt6Quick3DAssetImport.so.6:_ZNK22QSSGAssetImportManager22getImporterPluginInfosEv@@Qt_6_PRIVATE_API
libQt6Quick3DAssetImport.so.6:_ZNK22QSSGAssetImportManager22getSupportedExtensionsEv@@Qt_6_PRIVATE_API
libQt6Quick3DAssetImport.so.6:_ZNK23QSSGAssetImporterPlugin10metaObjectEv@@Qt_6_PRIVATE_API
libQt6Quick3DAssetUtils.so.6:NonQt
libQt6Quick3DAssetUtils.so.6:Qt_6
libQt6Quick3DAssetUtils.so.6:Qt_6_PRIVATE_API
libQt6Quick3DAssetUtils.so.6:_Z39qml_register_types_QtQuick3D_AssetUtilsv@@Qt_6
libQt6Quick3DAssetUtils.so.6:_ZN13QSSGSceneDesc11MorphTargetC1Ev@@Qt_6
libQt6Quick3DAssetUtils.so.6:_ZN13QSSGSceneDesc11MorphTargetC2Ev@@Qt_6
libQt6Quick3DAssetUtils.so.6:_ZN13QSSGSceneDesc11TextureDataC1ERK10QByteArray5QSizeS3_hS1_@@Qt_6
libQt6Quick3DAssetUtils.so.6:_ZN13QSSGSceneDesc11TextureDataC2ERK10QByteArray5QSizeS3_hS1_@@Qt_6
libQt6Quick3DAssetUtils.so.6:_ZN13QSSGSceneDesc11setPropertyERNS_4NodeEPKcO8QVariant@@Qt_6
libQt6Quick3DAssetUtils.so.6:_ZN13QSSGSceneDesc12PropertyCall3setER14QQuick3DObjectPKcPKv@@Qt_6
libQt6Quick3DAssetUtils.so.6:_ZN13QSSGSceneDesc12destructNodeERNS_4NodeE@@Qt_6
libQt6Quick3DAssetUtils.so.6:_ZN13QSSGSceneDesc13destructValueER8QVariant@@Qt_6
libQt6Quick3DAssetUtils.so.6:_ZN13QSSGSceneDesc16listViewMetaTypeEv@@Qt_6
libQt6Quick3DAssetUtils.so.6:_ZN13QSSGSceneDesc4MeshC1E10QByteArrayx@@Qt_6
libQt6Quick3DAssetUtils.so.6:_ZN13QSSGSceneDesc4MeshC2E10QByteArrayx@@Qt_6
libQt6Quick3DAssetUtils.so.6:_ZN13QSSGSceneDesc4Node15cleanupChildrenEv@@Qt_6
libQt6Quick3DAssetUtils.so.6:_ZN13QSSGSceneDesc4NodeD0Ev@@Qt_6
libQt6Quick3DAssetUtils.so.6:_ZN13QSSGSceneDesc4NodeD1Ev@@Qt_6
libQt6Quick3DAssetUtils.so.6:_ZN13QSSGSceneDesc4NodeD2Ev@@Qt_6
libQt6Quick3DAssetUtils.so.6:_ZN13QSSGSceneDesc4SkinC1Ev@@Qt_6
libQt6Quick3DAssetUtils.so.6:_ZN13QSSGSceneDesc4SkinC2Ev@@Qt_6
libQt6Quick3DAssetUtils.so.6:_ZN13QSSGSceneDesc5JointC1Ev@@Qt_6
libQt6Quick3DAssetUtils.so.6:_ZN13QSSGSceneDesc5JointC2Ev@@Qt_6
libQt6Quick3DAssetUtils.so.6:_ZN13QSSGSceneDesc5LightC1EN21QSSGRenderGraphObject4TypeE@@Qt_6
libQt6Quick3DAssetUtils.so.6:_ZN13QSSGSceneDesc5LightC2EN21QSSGRenderGraphObject4TypeE@@Qt_6
libQt6Quick3DAssetUtils.so.6:_ZN13QSSGSceneDesc5ModelC1Ev@@Qt_6
libQt6Quick3DAssetUtils.so.6:_ZN13QSSGSceneDesc5ModelC2Ev@@Qt_6
libQt6Quick3DAssetUtils.so.6:_ZN13QSSGSceneDesc5Scene5resetEv@@Qt_6
libQt6Quick3DAssetUtils.so.6:_ZN13QSSGSceneDesc5Scene7cleanupEv@@Qt_6
libQt6Quick3DAssetUtils.so.6:_ZN13QSSGSceneDesc6CameraC1EN21QSSGRenderGraphObject4TypeE@@Qt_6
libQt6Quick3DAssetUtils.so.6:_ZN13QSSGSceneDesc6CameraC2EN21QSSGRenderGraphObject4TypeE@@Qt_6
libQt6Quick3DAssetUtils.so.6:_ZN13QSSGSceneDesc7TextureC1EN21QSSGRenderGraphObject4TypeERK10QByteArray@@Qt_6
libQt6Quick3DAssetUtils.so.6:_ZN13QSSGSceneDesc7TextureC2EN21QSSGRenderGraphObject4TypeERK10QByteArray@@Qt_6
libQt6Quick3DAssetUtils.so.6:_ZN13QSSGSceneDesc7addNodeERNS_4NodeES1_@@Qt_6
libQt6Quick3DAssetUtils.so.6:_ZN13QSSGSceneDesc7addNodeERNS_5SceneERNS_4NodeE@@Qt_6
libQt6Quick3DAssetUtils.so.6:_ZN13QSSGSceneDesc8MaterialC1EN21QSSGRenderGraphObject4TypeE@@Qt_6
libQt6Quick3DAssetUtils.so.6:_ZN13QSSGSceneDesc8MaterialC2EN21QSSGRenderGraphObject4TypeE@@Qt_6
libQt6Quick3DAssetUtils.so.6:_ZN13QSSGSceneDesc8SkeletonC1Ev@@Qt_6
libQt6Quick3DAssetUtils.so.6:_ZN13QSSGSceneDesc8SkeletonC2Ev@@Qt_6
libQt6Quick3DAssetUtils.so.6:_ZN16QSSGQmlUtilities10colorToQmlERK6QColor@@Qt_6
libQt6Quick3DAssetUtils.so.6:_ZN16QSSGQmlUtilities11addResourceEPN13QSSGSceneDesc5SceneERK11QJsonObject@@Qt_6
libQt6Quick3DAssetUtils.so.6:_ZN16QSSGQmlUtilities11setPropertyEPN13QSSGSceneDesc4NodeE11QStringViewRK10QJsonValue@@Qt_6
libQt6Quick3DAssetUtils.so.6:_ZN16QSSGQmlUtilities12variantToQmlERK8QVariant@@Qt_6
libQt6Quick3DAssetUtils.so.6:_ZN16QSSGQmlUtilities13sanitizeQmlIdERK7QString@@Qt_6
libQt6Quick3DAssetUtils.so.6:_ZN16QSSGQmlUtilities16qmlComponentNameERK7QString@@Qt_6
libQt6Quick3DAssetUtils.so.6:_ZN16QSSGQmlUtilities17writeQmlComponentERKN13QSSGSceneDesc4NodeER11QTextStreamRK4QDir@@Qt_6
libQt6Quick3DAssetUtils.so.6:_ZN16QSSGQmlUtilities20stripParentDirectoryERK7QString@@Qt_6
libQt6Quick3DAssetUtils.so.6:_ZN16QSSGQmlUtilities21sanitizeQmlSourcePathERK7QStringb@@Qt_6
libQt6Quick3DAssetUtils.so.6:_ZN16QSSGQmlUtilities23createTimelineAnimationERKN13QSSGSceneDesc9AnimationEP7QObjectbb@@Qt_6
libQt6Quick3DAssetUtils.so.6:_ZN16QSSGQmlUtilities8writeQmlERKN13QSSGSceneDesc5SceneER11QTextStreamRK4QDirRK11QJsonObject@@Qt_6
libQt6Quick3DAssetUtils.so.6:_ZN16QSSGQmlUtilities9applyEditEPN13QSSGSceneDesc5SceneERK11QJsonObject@@Qt_6
libQt6Quick3DAssetUtils.so.6:_ZN16QSSGRuntimeUtils11createSceneER12QQuick3DNodeRKN13QSSGSceneDesc5SceneE@@Qt_6
libQt6Quick3DAssetUtils.so.6:_ZN16QSSGRuntimeUtils17createGraphObjectERN13QSSGSceneDesc4NodeER14QQuick3DObjectb@@Qt_6
libQt6Quick3DAssetUtils.so.6:_ZN16QSSGRuntimeUtils18applyPropertyValueEPKN13QSSGSceneDesc4NodeEP7QObjectPNS0_8PropertyE@@Qt_6
libQt6Quick3DAssetUtils.so.6:_ZN21QQuick3DRuntimeLoader10loadSourceEv@@Qt_6_PRIVATE_API
libQt6Quick3DAssetUtils.so.6:_ZN21QQuick3DRuntimeLoader11qt_metacallEN11QMetaObject4CallEiPPv@@Qt_6_PRIVATE_API
libQt6Quick3DAssetUtils.so.6:_ZN21QQuick3DRuntimeLoader11qt_metacastEPKc@@Qt_6_PRIVATE_API
libQt6Quick3DAssetUtils.so.6:_ZN21QQuick3DRuntimeLoader12updateModelsEv@@Qt_6_PRIVATE_API
libQt6Quick3DAssetUtils.so.6:_ZN21QQuick3DRuntimeLoader13boundsChangedEv@@Qt_6_PRIVATE_API
libQt6Quick3DAssetUtils.so.6:_ZN21QQuick3DRuntimeLoader13setInstancingEP18QQuick3DInstancing@@Qt_6_PRIVATE_API
libQt6Quick3DAssetUtils.so.6:_ZN21QQuick3DRuntimeLoader13sourceChangedEv@@Qt_6_PRIVATE_API
libQt6Quick3DAssetUtils.so.6:_ZN21QQuick3DRuntimeLoader13statusChangedEv@@Qt_6_PRIVATE_API
libQt6Quick3DAssetUtils.so.6:_ZN21QQuick3DRuntimeLoader15calculateBoundsEv@@Qt_6_PRIVATE_API
libQt6Quick3DAssetUtils.so.6:_ZN21QQuick3DRuntimeLoader17componentCompleteEv@@Qt_6_PRIVATE_API
libQt6Quick3DAssetUtils.so.6:_ZN21QQuick3DRuntimeLoader17instancingChangedEv@@Qt_6_PRIVATE_API
libQt6Quick3DAssetUtils.so.6:_ZN21QQuick3DRuntimeLoader17updateSpatialNodeEP21QSSGRenderGraphObject@@Qt_6_PRIVATE_API
libQt6Quick3DAssetUtils.so.6:_ZN21QQuick3DRuntimeLoader18errorStringChangedEv@@Qt_6_PRIVATE_API
libQt6Quick3DAssetUtils.so.6:_ZN21QQuick3DRuntimeLoader18supportedMimeTypesEv@@Qt_6_PRIVATE_API
libQt6Quick3DAssetUtils.so.6:_ZN21QQuick3DRuntimeLoader19supportedExtensionsEv@@Qt_6_PRIVATE_API
libQt6Quick3DAssetUtils.so.6:_ZN21QQuick3DRuntimeLoader9setSourceERK4QUrl@@Qt_6_PRIVATE_API
libQt6Quick3DAssetUtils.so.6:_ZN21QQuick3DRuntimeLoaderC1EP12QQuick3DNode@@Qt_6_PRIVATE_API
libQt6Quick3DAssetUtils.so.6:_ZN21QQuick3DRuntimeLoaderC2EP12QQuick3DNode@@Qt_6_PRIVATE_API
libQt6Quick3DAssetUtils.so.6:_ZNK13QSSGSceneDesc12PropertyCall3getERK14QQuick3DObjectPPKv@@Qt_6
libQt6Quick3DAssetUtils.so.6:_ZNK21QQuick3DRuntimeLoader10instancingEv@@Qt_6_PRIVATE_API
libQt6Quick3DAssetUtils.so.6:_ZNK21QQuick3DRuntimeLoader10metaObjectEv@@Qt_6_PRIVATE_API
libQt6Quick3DAssetUtils.so.6:_ZNK21QQuick3DRuntimeLoader11errorStringEv@@Qt_6_PRIVATE_API
libQt6Quick3DAssetUtils.so.6:_ZNK21QQuick3DRuntimeLoader6boundsEv@@Qt_6_PRIVATE_API
libQt6Quick3DAssetUtils.so.6:_ZNK21QQuick3DRuntimeLoader6sourceEv@@Qt_6_PRIVATE_API
libQt6Quick3DAssetUtils.so.6:_ZNK21QQuick3DRuntimeLoader6statusEv@@Qt_6_PRIVATE_API
libQt6Quick3DAssetUtils.so.6:_ZThn16_N21QQuick3DRuntimeLoader17componentCompleteEv@@Qt_6_PRIVATE_API
libQt6Quick3DEffects.so.6:_Z36qml_register_types_QtQuick3D_Effectsv
libQt6Quick3DGlslParser.so.6:NonQt
libQt6Quick3DGlslParser.so.6:Qt_6
libQt6Quick3DGlslParser.so.6:Qt_6_PRIVATE_API
libQt6Quick3DGlslParser.so.6:_ZN4GLSL10MemoryPool15allocate_helperEm@@Qt_6_PRIVATE_API
libQt6Quick3DGlslParser.so.6:_ZN4GLSL10MemoryPool5resetEv@@Qt_6_PRIVATE_API
libQt6Quick3DGlslParser.so.6:_ZN4GLSL10MemoryPoolC1Ev@@Qt_6_PRIVATE_API
libQt6Quick3DGlslParser.so.6:_ZN4GLSL10MemoryPoolC2Ev@@Qt_6_PRIVATE_API
libQt6Quick3DGlslParser.so.6:_ZN4GLSL10MemoryPoolD1Ev@@Qt_6_PRIVATE_API
libQt6Quick3DGlslParser.so.6:_ZN4GLSL10MemoryPoolD2Ev@@Qt_6_PRIVATE_API
libQt6Quick3DGlslParser.so.6:_ZN4GLSL10VectorType15populateMembersEPNS_6EngineE@@Qt_6_PRIVATE_API
libQt6Quick3DGlslParser.so.6:_ZN4GLSL10VectorType15populateMembersEPNS_6EngineEPKc@@Qt_6_PRIVATE_API
libQt6Quick3DGlslParser.so.6:_ZN4GLSL10VectorType3addEPNS_6SymbolE@@Qt_6_PRIVATE_API
libQt6Quick3DGlslParser.so.6:_ZN4GLSL11OverloadSet11addFunctionEPNS_8FunctionE@@Qt_6_PRIVATE_API
libQt6Quick3DGlslParser.so.6:_ZN4GLSL11OverloadSet3addEPNS_6SymbolE@@Qt_6_PRIVATE_API
libQt6Quick3DGlslParser.so.6:_ZN4GLSL11OverloadSetC1EPNS_5ScopeE@@Qt_6_PRIVATE_API
libQt6Quick3DGlslParser.so.6:_ZN4GLSL11OverloadSetC2EPNS_5ScopeE@@Qt_6_PRIVATE_API
libQt6Quick3DGlslParser.so.6:_ZN4GLSL12ArrayTypeAST12setPrecisionENS_7TypeAST9PrecisionE@@Qt_6_PRIVATE_API
libQt6Quick3DGlslParser.so.6:_ZN4GLSL12ArrayTypeAST7accept0EPNS_7VisitorE@@Qt_6_PRIVATE_API
libQt6Quick3DGlslParser.so.6:_ZN4GLSL12BasicTypeAST12setPrecisionENS_7TypeAST9PrecisionE@@Qt_6_PRIVATE_API
libQt6Quick3DGlslParser.so.6:_ZN4GLSL12BasicTypeAST7accept0EPNS_7VisitorE@@Qt_6_PRIVATE_API
libQt6Quick3DGlslParser.so.6:_ZN4GLSL12BasicTypeASTC1EiPKc@@Qt_6_PRIVATE_API
libQt6Quick3DGlslParser.so.6:_ZN4GLSL12BasicTypeASTC2EiPKc@@Qt_6_PRIVATE_API
libQt6Quick3DGlslParser.so.6:_ZN4GLSL12NamedTypeAST12setPrecisionENS_7TypeAST9PrecisionE@@Qt_6_PRIVATE_API
libQt6Quick3DGlslParser.so.6:_ZN4GLSL12NamedTypeAST7accept0EPNS_7VisitorE@@Qt_6_PRIVATE_API
libQt6Quick3DGlslParser.so.6:_ZN4GLSL13StructTypeAST12setPrecisionENS_7TypeAST9PrecisionE@@Qt_6_PRIVATE_API
libQt6Quick3DGlslParser.so.6:_ZN4GLSL13StructTypeAST13fixInnerTypesEPNS_7TypeASTEPNS_4ListIPNS0_5FieldEEE@@Qt_6_PRIVATE_API
libQt6Quick3DGlslParser.so.6:_ZN4GLSL13StructTypeAST5Field12setInnerTypeEPNS_7TypeASTE@@Qt_6_PRIVATE_API
libQt6Quick3DGlslParser.so.6:_ZN4GLSL13StructTypeAST5Field7accept0EPNS_7VisitorE@@Qt_6_PRIVATE_API
libQt6Quick3DGlslParser.so.6:_ZN4GLSL13StructTypeAST7accept0EPNS_7VisitorE@@Qt_6_PRIVATE_API
libQt6Quick3DGlslParser.so.6:_ZN4GLSL14DoStatementAST7accept0EPNS_7VisitorE@@Qt_6_PRIVATE_API
libQt6Quick3DGlslParser.so.6:_ZN4GLSL14IfStatementAST7accept0EPNS_7VisitorE@@Qt_6_PRIVATE_API
libQt6Quick3DGlslParser.so.6:_ZN4GLSL15ForStatementAST7accept0EPNS_7VisitorE@@Qt_6_PRIVATE_API
libQt6Quick3DGlslParser.so.6:_ZN4GLSL16JumpStatementAST7accept0EPNS_7VisitorE@@Qt_6_PRIVATE_API
libQt6Quick3DGlslParser.so.6:_ZN4GLSL16QualifiedTypeAST7accept0EPNS_7VisitorE@@Qt_6_PRIVATE_API
libQt6Quick3DGlslParser.so.6:_ZN4GLSL17DiagnosticMessage10setMessageERK7QString@@Qt_6_PRIVATE_API
libQt6Quick3DGlslParser.so.6:_ZN4GLSL17DiagnosticMessage11setFileNameERK7QString@@Qt_6_PRIVATE_API
libQt6Quick3DGlslParser.so.6:_ZN4GLSL17DiagnosticMessage7setKindENS0_4KindE@@Qt_6_PRIVATE_API
libQt6Quick3DGlslParser.so.6:_ZN4GLSL17DiagnosticMessage7setLineEi@@Qt_6_PRIVATE_API
libQt6Quick3DGlslParser.so.6:_ZN4GLSL17DiagnosticMessageC1Ev@@Qt_6_PRIVATE_API
libQt6Quick3DGlslParser.so.6:_ZN4GLSL17DiagnosticMessageC2Ev@@Qt_6_PRIVATE_API
libQt6Quick3DGlslParser.so.6:_ZN4GLSL17WhileStatementAST7accept0EPNS_7VisitorE@@Qt_6_PRIVATE_API
libQt6Quick3DGlslParser.so.6:_ZN4GLSL18InitDeclarationAST7accept0EPNS_7VisitorE@@Qt_6_PRIVATE_API
libQt6Quick3DGlslParser.so.6:_ZN4GLSL18LayoutQualifierAST7accept0EPNS_7VisitorE@@Qt_6_PRIVATE_API
libQt6Quick3DGlslParser.so.6:_ZN4GLSL18ReturnStatementAST7accept0EPNS_7VisitorE@@Qt_6_PRIVATE_API
libQt6Quick3DGlslParser.so.6:_ZN4GLSL18SwitchStatementAST7accept0EPNS_7VisitorE@@Qt_6_PRIVATE_API
libQt6Quick3DGlslParser.so.6:_ZN4GLSL18TranslationUnitAST7accept0EPNS_7VisitorE@@Qt_6_PRIVATE_API
libQt6Quick3DGlslParser.so.6:_ZN4GLSL18TypeDeclarationAST7accept0EPNS_7VisitorE@@Qt_6_PRIVATE_API
libQt6Quick3DGlslParser.so.6:_ZN4GLSL18UnaryExpressionAST7accept0EPNS_7VisitorE@@Qt_6_PRIVATE_API
libQt6Quick3DGlslParser.so.6:_ZN4GLSL19BinaryExpressionAST7accept0EPNS_7VisitorE@@Qt_6_PRIVATE_API
libQt6Quick3DGlslParser.so.6:_ZN4GLSL20CompoundStatementAST7accept0EPNS_7VisitorE@@Qt_6_PRIVATE_API
libQt6Quick3DGlslParser.so.6:_ZN4GLSL20LiteralExpressionAST7accept0EPNS_7VisitorE@@Qt_6_PRIVATE_API
libQt6Quick3DGlslParser.so.6:_ZN4GLSL20TernaryExpressionAST7accept0EPNS_7VisitorE@@Qt_6_PRIVATE_API
libQt6Quick3DGlslParser.so.6:_ZN4GLSL21CaseLabelStatementAST7accept0EPNS_7VisitorE@@Qt_6_PRIVATE_API
libQt6Quick3DGlslParser.so.6:_ZN4GLSL21FunctionIdentifierAST7accept0EPNS_7VisitorE@@Qt_6_PRIVATE_API
libQt6Quick3DGlslParser.so.6:_ZN4GLSL22ExpressionStatementAST7accept0EPNS_7VisitorE@@Qt_6_PRIVATE_API
libQt6Quick3DGlslParser.so.6:_ZN4GLSL22FunctionDeclarationAST7accept0EPNS_7VisitorE@@Qt_6_PRIVATE_API
libQt6Quick3DGlslParser.so.6:_ZN4GLSL22VariableDeclarationAST15declarationTypeEPNS_4ListIPNS_14DeclarationASTEEE@@Qt_6_PRIVATE_API
libQt6Quick3DGlslParser.so.6:_ZN4GLSL22VariableDeclarationAST7accept0EPNS_7VisitorE@@Qt_6_PRIVATE_API
libQt6Quick3DGlslParser.so.6:_ZN4GLSL23AssignmentExpressionAST7accept0EPNS_7VisitorE@@Qt_6_PRIVATE_API
libQt6Quick3DGlslParser.so.6:_ZN4GLSL23DeclarationStatementAST7accept0EPNS_7VisitorE@@Qt_6_PRIVATE_API
libQt6Quick3DGlslParser.so.6:_ZN4GLSL23IdentifierExpressionAST7accept0EPNS_7VisitorE@@Qt_6_PRIVATE_API
libQt6Quick3DGlslParser.so.6:_ZN4GLSL23InvariantDeclarationAST7accept0EPNS_7VisitorE@@Qt_6_PRIVATE_API
libQt6Quick3DGlslParser.so.6:_ZN4GLSL23ParameterDeclarationAST7accept0EPNS_7VisitorE@@Qt_6_PRIVATE_API
libQt6Quick3DGlslParser.so.6:_ZN4GLSL23PrecisionDeclarationAST7accept0EPNS_7VisitorE@@Qt_6_PRIVATE_API
libQt6Quick3DGlslParser.so.6:_ZN4GLSL24DeclarationExpressionAST7accept0EPNS_7VisitorE@@Qt_6_PRIVATE_API
libQt6Quick3DGlslParser.so.6:_ZN4GLSL25FunctionCallExpressionAST7accept0EPNS_7VisitorE@@Qt_6_PRIVATE_API
libQt6Quick3DGlslParser.so.6:_ZN4GLSL25MemberAccessExpressionAST7accept0EPNS_7VisitorE@@Qt_6_PRIVATE_API
libQt6Quick3DGlslParser.so.6:_ZN4GLSL29TypeAndVariableDeclarationAST7accept0EPNS_7VisitorE@@Qt_6_PRIVATE_API
libQt6Quick3DGlslParser.so.6:_ZN4GLSL3AST6acceptEPNS_7VisitorE@@Qt_6_PRIVATE_API
libQt6Quick3DGlslParser.so.6:_ZN4GLSL3AST6acceptEPS0_PNS_7VisitorE@@Qt_6_PRIVATE_API
libQt6Quick3DGlslParser.so.6:_ZN4GLSL4TypeD0Ev@@Qt_6_PRIVATE_API
libQt6Quick3DGlslParser.so.6:_ZN4GLSL4TypeD1Ev@@Qt_6_PRIVATE_API
libQt6Quick3DGlslParser.so.6:_ZN4GLSL4TypeD2Ev@@Qt_6_PRIVATE_API
libQt6Quick3DGlslParser.so.6:_ZN4GLSL5Block3addEPNS_6SymbolE@@Qt_6_PRIVATE_API
libQt6Quick3DGlslParser.so.6:_ZN4GLSL5BlockC1EPNS_5ScopeE@@Qt_6_PRIVATE_API
libQt6Quick3DGlslParser.so.6:_ZN4GLSL5BlockC2EPNS_5ScopeE@@Qt_6_PRIVATE_API
libQt6Quick3DGlslParser.so.6:_ZN4GLSL5Lexer12yylex_helperEPPKcPi@@Qt_6_PRIVATE_API
libQt6Quick3DGlslParser.so.6:_ZN4GLSL5Lexer5errorEiRK7QString@@Qt_6_PRIVATE_API
libQt6Quick3DGlslParser.so.6:_ZN4GLSL5Lexer5yyinpEv@@Qt_6_PRIVATE_API
libQt6Quick3DGlslParser.so.6:_ZN4GLSL5Lexer5yylexEPNS_5TokenE@@Qt_6_PRIVATE_API
libQt6Quick3DGlslParser.so.6:_ZN4GLSL5Lexer7warningEiRK7QString@@Qt_6_PRIVATE_API
libQt6Quick3DGlslParser.so.6:_ZN4GLSL5Lexer8classifyEPKci@@Qt_6_PRIVATE_API
libQt6Quick3DGlslParser.so.6:_ZN4GLSL5Lexer8keywordsEi@@Qt_6_PRIVATE_API
libQt6Quick3DGlslParser.so.6:_ZN4GLSL5LexerC1EPNS_6EngineEPKcj@@Qt_6_PRIVATE_API
libQt6Quick3DGlslParser.so.6:_ZN4GLSL5LexerC2EPNS_6EngineEPKcj@@Qt_6_PRIVATE_API
libQt6Quick3DGlslParser.so.6:_ZN4GLSL5LexerD1Ev@@Qt_6_PRIVATE_API
libQt6Quick3DGlslParser.so.6:_ZN4GLSL5LexerD2Ev@@Qt_6_PRIVATE_API
libQt6Quick3DGlslParser.so.6:_ZN4GLSL5ScopeC1EPS0_@@Qt_6_PRIVATE_API
libQt6Quick3DGlslParser.so.6:_ZN4GLSL5ScopeC2EPS0_@@Qt_6_PRIVATE_API
libQt6Quick3DGlslParser.so.6:_ZN4GLSL6Engine10doubleTypeEv@@Qt_6_PRIVATE_API
libQt6Quick3DGlslParser.so.6:_ZN4GLSL6Engine10identifierEPKci@@Qt_6_PRIVATE_API
libQt6Quick3DGlslParser.so.6:_ZN4GLSL6Engine10identifierERK7QString@@Qt_6_PRIVATE_API
libQt6Quick3DGlslParser.so.6:_ZN4GLSL6Engine10matrixTypeEPKNS_4TypeEii@@Qt_6_PRIVATE_API
libQt6Quick3DGlslParser.so.6:_ZN4GLSL6Engine10vectorTypeEPKNS_4TypeEi@@Qt_6_PRIVATE_API
libQt6Quick3DGlslParser.so.6:_ZN4GLSL6Engine11newArgumentEPNS_8FunctionERK7QStringPKNS_4TypeE@@Qt_6_PRIVATE_API
libQt6Quick3DGlslParser.so.6:_ZN4GLSL6Engine11newFunctionEPNS_5ScopeE@@Qt_6_PRIVATE_API
libQt6Quick3DGlslParser.so.6:_ZN4GLSL6Engine11newVariableEPNS_5ScopeERK7QStringPKNS_4TypeEi@@Qt_6_PRIVATE_API
libQt6Quick3DGlslParser.so.6:_ZN4GLSL6Engine11samplerTypeEi@@Qt_6_PRIVATE_API
libQt6Quick3DGlslParser.so.6:_ZN4GLSL6Engine12newNamespaceEv@@Qt_6_PRIVATE_API
libQt6Quick3DGlslParser.so.6:_ZN4GLSL6Engine13undefinedTypeEv@@Qt_6_PRIVATE_API
libQt6Quick3DGlslParser.so.6:_ZN4GLSL6Engine20addDiagnosticMessageERKNS_17DiagnosticMessageE@@Qt_6_PRIVATE_API
libQt6Quick3DGlslParser.so.6:_ZN4GLSL6Engine23blockDiagnosticMessagesEb@@Qt_6_PRIVATE_API
libQt6Quick3DGlslParser.so.6:_ZN4GLSL6Engine23clearDiagnosticMessagesEv@@Qt_6_PRIVATE_API
libQt6Quick3DGlslParser.so.6:_ZN4GLSL6Engine4poolEv@@Qt_6_PRIVATE_API
libQt6Quick3DGlslParser.so.6:_ZN4GLSL6Engine5errorEiRK7QString@@Qt_6_PRIVATE_API
libQt6Quick3DGlslParser.so.6:_ZN4GLSL6Engine6numberEPKci@@Qt_6_PRIVATE_API
libQt6Quick3DGlslParser.so.6:_ZN4GLSL6Engine6numberERK7QString@@Qt_6_PRIVATE_API
libQt6Quick3DGlslParser.so.6:_ZN4GLSL6Engine7intTypeEv@@Qt_6_PRIVATE_API
libQt6Quick3DGlslParser.so.6:_ZN4GLSL6Engine7warningEiRK7QString@@Qt_6_PRIVATE_API
libQt6Quick3DGlslParser.so.6:_ZN4GLSL6Engine8boolTypeEv@@Qt_6_PRIVATE_API
libQt6Quick3DGlslParser.so.6:_ZN4GLSL6Engine8newBlockEPNS_5ScopeE@@Qt_6_PRIVATE_API
libQt6Quick3DGlslParser.so.6:_ZN4GLSL6Engine8uintTypeEv@@Qt_6_PRIVATE_API
libQt6Quick3DGlslParser.so.6:_ZN4GLSL6Engine8voidTypeEv@@Qt_6_PRIVATE_API
libQt6Quick3DGlslParser.so.6:_ZN4GLSL6Engine9arrayTypeEPKNS_4TypeE@@Qt_6_PRIVATE_API
libQt6Quick3DGlslParser.so.6:_ZN4GLSL6Engine9floatTypeEv@@Qt_6_PRIVATE_API
libQt6Quick3DGlslParser.so.6:_ZN4GLSL6Engine9newStructEPNS_5ScopeE@@Qt_6_PRIVATE_API
libQt6Quick3DGlslParser.so.6:_ZN4GLSL6EngineC1Ev@@Qt_6_PRIVATE_API
libQt6Quick3DGlslParser.so.6:_ZN4GLSL6EngineC2Ev@@Qt_6_PRIVATE_API
libQt6Quick3DGlslParser.so.6:_ZN4GLSL6EngineD1Ev@@Qt_6_PRIVATE_API
libQt6Quick3DGlslParser.so.6:_ZN4GLSL6EngineD2Ev@@Qt_6_PRIVATE_API
libQt6Quick3DGlslParser.so.6:_ZN4GLSL6Parser5parseEi@@Qt_6_PRIVATE_API
libQt6Quick3DGlslParser.so.6:_ZN4GLSL6Parser6reduceEi@@Qt_6_PRIVATE_API
libQt6Quick3DGlslParser.so.6:_ZN4GLSL6ParserC1EPNS_6EngineEPKcji@@Qt_6_PRIVATE_API
libQt6Quick3DGlslParser.so.6:_ZN4GLSL6ParserC2EPNS_6EngineEPKcji@@Qt_6_PRIVATE_API
libQt6Quick3DGlslParser.so.6:_ZN4GLSL6ParserD1Ev@@Qt_6_PRIVATE_API
libQt6Quick3DGlslParser.so.6:_ZN4GLSL6ParserD2Ev@@Qt_6_PRIVATE_API
libQt6Quick3DGlslParser.so.6:_ZN4GLSL6Struct3addEPNS_6SymbolE@@Qt_6_PRIVATE_API
libQt6Quick3DGlslParser.so.6:_ZN4GLSL6Symbol7setNameERK7QString@@Qt_6_PRIVATE_API
libQt6Quick3DGlslParser.so.6:_ZN4GLSL6Symbol8setScopeEPNS_5ScopeE@@Qt_6_PRIVATE_API
libQt6Quick3DGlslParser.so.6:_ZN4GLSL6SymbolC1EPNS_5ScopeE@@Qt_6_PRIVATE_API
libQt6Quick3DGlslParser.so.6:_ZN4GLSL6SymbolC2EPNS_5ScopeE@@Qt_6_PRIVATE_API
libQt6Quick3DGlslParser.so.6:_ZN4GLSL6SymbolD0Ev@@Qt_6_PRIVATE_API
libQt6Quick3DGlslParser.so.6:_ZN4GLSL6SymbolD1Ev@@Qt_6_PRIVATE_API
libQt6Quick3DGlslParser.so.6:_ZN4GLSL6SymbolD2Ev@@Qt_6_PRIVATE_API
libQt6Quick3DGlslParser.so.6:_ZN4GLSL7ASTDump8preVisitEPNS_3ASTE@@Qt_6_PRIVATE_API
libQt6Quick3DGlslParser.so.6:_ZN4GLSL7ASTDump9postVisitEPNS_3ASTE@@Qt_6_PRIVATE_API
libQt6Quick3DGlslParser.so.6:_ZN4GLSL7ASTDumpC1ER11QTextStream@@Qt_6_PRIVATE_API
libQt6Quick3DGlslParser.so.6:_ZN4GLSL7ASTDumpC2ER11QTextStream@@Qt_6_PRIVATE_API
libQt6Quick3DGlslParser.so.6:_ZN4GLSL7ASTDumpclEPNS_3ASTE@@Qt_6_PRIVATE_API
libQt6Quick3DGlslParser.so.6:_ZN4GLSL7ManagedC1Ev@@Qt_6_PRIVATE_API
libQt6Quick3DGlslParser.so.6:_ZN4GLSL7ManagedC2Ev@@Qt_6_PRIVATE_API
libQt6Quick3DGlslParser.so.6:_ZN4GLSL7ManagedD0Ev@@Qt_6_PRIVATE_API
libQt6Quick3DGlslParser.so.6:_ZN4GLSL7ManagedD1Ev@@Qt_6_PRIVATE_API
libQt6Quick3DGlslParser.so.6:_ZN4GLSL7ManagedD2Ev@@Qt_6_PRIVATE_API
libQt6Quick3DGlslParser.so.6:_ZN4GLSL7ManageddlEPv@@Qt_6_PRIVATE_API
libQt6Quick3DGlslParser.so.6:_ZN4GLSL7ManageddlEPvPNS_10MemoryPoolE@@Qt_6_PRIVATE_API
libQt6Quick3DGlslParser.so.6:_ZN4GLSL7ManagednwEmPNS_10MemoryPoolE@@Qt_6_PRIVATE_API
libQt6Quick3DGlslParser.so.6:_ZN4GLSL7Visitor6acceptEPNS_3ASTE@@Qt_6_PRIVATE_API
libQt6Quick3DGlslParser.so.6:_ZN4GLSL7VisitorC1Ev@@Qt_6_PRIVATE_API
libQt6Quick3DGlslParser.so.6:_ZN4GLSL7VisitorC2Ev@@Qt_6_PRIVATE_API
libQt6Quick3DGlslParser.so.6:_ZN4GLSL7VisitorD0Ev@@Qt_6_PRIVATE_API
libQt6Quick3DGlslParser.so.6:_ZN4GLSL7VisitorD1Ev@@Qt_6_PRIVATE_API
libQt6Quick3DGlslParser.so.6:_ZN4GLSL7VisitorD2Ev@@Qt_6_PRIVATE_API
libQt6Quick3DGlslParser.so.6:_ZN4GLSL8Argument7setTypeEPKNS_4TypeE@@Qt_6_PRIVATE_API
libQt6Quick3DGlslParser.so.6:_ZN4GLSL8ArgumentC1EPNS_8FunctionE@@Qt_6_PRIVATE_API
libQt6Quick3DGlslParser.so.6:_ZN4GLSL8ArgumentC2EPNS_8FunctionE@@Qt_6_PRIVATE_API
libQt6Quick3DGlslParser.so.6:_ZN4GLSL8Function11addArgumentEPNS_8ArgumentE@@Qt_6_PRIVATE_API
libQt6Quick3DGlslParser.so.6:_ZN4GLSL8Function13setReturnTypeEPKNS_4TypeE@@Qt_6_PRIVATE_API
libQt6Quick3DGlslParser.so.6:_ZN4GLSL8Semantic10expressionEPNS_13ExpressionASTE@@Qt_6_PRIVATE_API
libQt6Quick3DGlslParser.so.6:_ZN4GLSL8Semantic10expressionEPNS_13ExpressionASTEPNS_5ScopeEPNS_6EngineE@@Qt_6_PRIVATE_API
libQt6Quick3DGlslParser.so.6:_ZN4GLSL8Semantic11declarationEPNS_14DeclarationASTE@@Qt_6_PRIVATE_API
libQt6Quick3DGlslParser.so.6:_ZN4GLSL8Semantic11switchScopeEPNS_5ScopeE@@Qt_6_PRIVATE_API
libQt6Quick3DGlslParser.so.6:_ZN4GLSL8Semantic12switchEngineEPNS_6EngineE@@Qt_6_PRIVATE_API
libQt6Quick3DGlslParser.so.6:_ZN4GLSL8Semantic15translationUnitEPNS_18TranslationUnitASTEPNS_5ScopeEPNS_6EngineE@@Qt_6_PRIVATE_API
libQt6Quick3DGlslParser.so.6:_ZN4GLSL8Semantic18functionIdentifierEPNS_21FunctionIdentifierASTE@@Qt_6_PRIVATE_API
libQt6Quick3DGlslParser.so.6:_ZN4GLSL8Semantic20parameterDeclarationEPNS_23ParameterDeclarationASTEPNS_8FunctionE@@Qt_6_PRIVATE_API
libQt6Quick3DGlslParser.so.6:_ZN4GLSL8Semantic4typeEPNS_7TypeASTE@@Qt_6_PRIVATE_API
libQt6Quick3DGlslParser.so.6:_ZN4GLSL8Semantic5fieldEPNS_13StructTypeAST5FieldE@@Qt_6_PRIVATE_API
libQt6Quick3DGlslParser.so.6:_ZN4GLSL8Semantic5visitEPNS_12ArrayTypeASTE@@Qt_6_PRIVATE_API
libQt6Quick3DGlslParser.so.6:_ZN4GLSL8Semantic5visitEPNS_12BasicTypeASTE@@Qt_6_PRIVATE_API
libQt6Quick3DGlslParser.so.6:_ZN4GLSL8Semantic5visitEPNS_12NamedTypeASTE@@Qt_6_PRIVATE_API
libQt6Quick3DGlslParser.so.6:_ZN4GLSL8Semantic5visitEPNS_13StructTypeAST5FieldE@@Qt_6_PRIVATE_API
libQt6Quick3DGlslParser.so.6:_ZN4GLSL8Semantic5visitEPNS_13StructTypeASTE@@Qt_6_PRIVATE_API
libQt6Quick3DGlslParser.so.6:_ZN4GLSL8Semantic5visitEPNS_14DoStatementASTE@@Qt_6_PRIVATE_API
libQt6Quick3DGlslParser.so.6:_ZN4GLSL8Semantic5visitEPNS_14IfStatementASTE@@Qt_6_PRIVATE_API
libQt6Quick3DGlslParser.so.6:_ZN4GLSL8Semantic5visitEPNS_15ForStatementASTE@@Qt_6_PRIVATE_API
libQt6Quick3DGlslParser.so.6:_ZN4GLSL8Semantic5visitEPNS_16JumpStatementASTE@@Qt_6_PRIVATE_API
libQt6Quick3DGlslParser.so.6:_ZN4GLSL8Semantic5visitEPNS_16QualifiedTypeASTE@@Qt_6_PRIVATE_API
libQt6Quick3DGlslParser.so.6:_ZN4GLSL8Semantic5visitEPNS_17WhileStatementASTE@@Qt_6_PRIVATE_API
libQt6Quick3DGlslParser.so.6:_ZN4GLSL8Semantic5visitEPNS_18InitDeclarationASTE@@Qt_6_PRIVATE_API
libQt6Quick3DGlslParser.so.6:_ZN4GLSL8Semantic5visitEPNS_18ReturnStatementASTE@@Qt_6_PRIVATE_API
libQt6Quick3DGlslParser.so.6:_ZN4GLSL8Semantic5visitEPNS_18SwitchStatementASTE@@Qt_6_PRIVATE_API
libQt6Quick3DGlslParser.so.6:_ZN4GLSL8Semantic5visitEPNS_18TranslationUnitASTE@@Qt_6_PRIVATE_API
libQt6Quick3DGlslParser.so.6:_ZN4GLSL8Semantic5visitEPNS_18TypeDeclarationASTE@@Qt_6_PRIVATE_API
libQt6Quick3DGlslParser.so.6:_ZN4GLSL8Semantic5visitEPNS_18UnaryExpressionASTE@@Qt_6_PRIVATE_API
libQt6Quick3DGlslParser.so.6:_ZN4GLSL8Semantic5visitEPNS_19BinaryExpressionASTE@@Qt_6_PRIVATE_API
libQt6Quick3DGlslParser.so.6:_ZN4GLSL8Semantic5visitEPNS_20CompoundStatementASTE@@Qt_6_PRIVATE_API
libQt6Quick3DGlslParser.so.6:_ZN4GLSL8Semantic5visitEPNS_20LiteralExpressionASTE@@Qt_6_PRIVATE_API
libQt6Quick3DGlslParser.so.6:_ZN4GLSL8Semantic5visitEPNS_20TernaryExpressionASTE@@Qt_6_PRIVATE_API
libQt6Quick3DGlslParser.so.6:_ZN4GLSL8Semantic5visitEPNS_21CaseLabelStatementASTE@@Qt_6_PRIVATE_API
libQt6Quick3DGlslParser.so.6:_ZN4GLSL8Semantic5visitEPNS_21FunctionIdentifierASTE@@Qt_6_PRIVATE_API
libQt6Quick3DGlslParser.so.6:_ZN4GLSL8Semantic5visitEPNS_22ExpressionStatementASTE@@Qt_6_PRIVATE_API
libQt6Quick3DGlslParser.so.6:_ZN4GLSL8Semantic5visitEPNS_22FunctionDeclarationASTE@@Qt_6_PRIVATE_API
libQt6Quick3DGlslParser.so.6:_ZN4GLSL8Semantic5visitEPNS_22VariableDeclarationASTE@@Qt_6_PRIVATE_API
libQt6Quick3DGlslParser.so.6:_ZN4GLSL8Semantic5visitEPNS_23AssignmentExpressionASTE@@Qt_6_PRIVATE_API
libQt6Quick3DGlslParser.so.6:_ZN4GLSL8Semantic5visitEPNS_23DeclarationStatementASTE@@Qt_6_PRIVATE_API
libQt6Quick3DGlslParser.so.6:_ZN4GLSL8Semantic5visitEPNS_23IdentifierExpressionASTE@@Qt_6_PRIVATE_API
libQt6Quick3DGlslParser.so.6:_ZN4GLSL8Semantic5visitEPNS_23InvariantDeclarationASTE@@Qt_6_PRIVATE_API
libQt6Quick3DGlslParser.so.6:_ZN4GLSL8Semantic5visitEPNS_23ParameterDeclarationASTE@@Qt_6_PRIVATE_API
libQt6Quick3DGlslParser.so.6:_ZN4GLSL8Semantic5visitEPNS_23PrecisionDeclarationASTE@@Qt_6_PRIVATE_API
libQt6Quick3DGlslParser.so.6:_ZN4GLSL8Semantic5visitEPNS_24DeclarationExpressionASTE@@Qt_6_PRIVATE_API
libQt6Quick3DGlslParser.so.6:_ZN4GLSL8Semantic5visitEPNS_25FunctionCallExpressionASTE@@Qt_6_PRIVATE_API
libQt6Quick3DGlslParser.so.6:_ZN4GLSL8Semantic5visitEPNS_25MemberAccessExpressionASTE@@Qt_6_PRIVATE_API
libQt6Quick3DGlslParser.so.6:_ZN4GLSL8Semantic5visitEPNS_29TypeAndVariableDeclarationASTE@@Qt_6_PRIVATE_API
libQt6Quick3DGlslParser.so.6:_ZN4GLSL8Semantic9statementEPNS_12StatementASTE@@Qt_6_PRIVATE_API
libQt6Quick3DGlslParser.so.6:_ZN4GLSL8SemanticC1Ev@@Qt_6_PRIVATE_API
libQt6Quick3DGlslParser.so.6:_ZN4GLSL8SemanticC2Ev@@Qt_6_PRIVATE_API
libQt6Quick3DGlslParser.so.6:_ZN4GLSL8SemanticD0Ev@@Qt_6_PRIVATE_API
libQt6Quick3DGlslParser.so.6:_ZN4GLSL8SemanticD1Ev@@Qt_6_PRIVATE_API
libQt6Quick3DGlslParser.so.6:_ZN4GLSL8SemanticD2Ev@@Qt_6_PRIVATE_API
libQt6Quick3DGlslParser.so.6:_ZN4GLSL8Variable7setTypeEPKNS_4TypeE@@Qt_6_PRIVATE_API
libQt6Quick3DGlslParser.so.6:_ZN4GLSL8VariableC1EPNS_5ScopeE@@Qt_6_PRIVATE_API
libQt6Quick3DGlslParser.so.6:_ZN4GLSL8VariableC2EPNS_5ScopeE@@Qt_6_PRIVATE_API
libQt6Quick3DGlslParser.so.6:_ZN4GLSL9Namespace3addEPNS_6SymbolE@@Qt_6_PRIVATE_API
libQt6Quick3DGlslParser.so.6:_ZN4GLSL9NamespaceC1Ev@@Qt_6_PRIVATE_API
libQt6Quick3DGlslParser.so.6:_ZN4GLSL9NamespaceC2Ev@@Qt_6_PRIVATE_API
libQt6Quick3DGlslParser.so.6:_ZN4GLSL9NamespaceD0Ev@@Qt_6_PRIVATE_API
libQt6Quick3DGlslParser.so.6:_ZN4GLSL9NamespaceD1Ev@@Qt_6_PRIVATE_API
libQt6Quick3DGlslParser.so.6:_ZN4GLSL9NamespaceD2Ev@@Qt_6_PRIVATE_API
libQt6Quick3DGlslParser.so.6:_ZNK4GLSL10DoubleType10isLessThanEPKNS_4TypeE@@Qt_6_PRIVATE_API
libQt6Quick3DGlslParser.so.6:_ZNK4GLSL10DoubleType9isEqualToEPKNS_4TypeE@@Qt_6_PRIVATE_API
libQt6Quick3DGlslParser.so.6:_ZNK4GLSL10MatrixType10isLessThanEPKNS_4TypeE@@Qt_6_PRIVATE_API
libQt6Quick3DGlslParser.so.6:_ZNK4GLSL10MatrixType8toStringEv@@Qt_6_PRIVATE_API
libQt6Quick3DGlslParser.so.6:_ZNK4GLSL10MatrixType9isEqualToEPKNS_4TypeE@@Qt_6_PRIVATE_API
libQt6Quick3DGlslParser.so.6:_ZNK4GLSL10VectorType10isLessThanEPKNS_4TypeE@@Qt_6_PRIVATE_API
libQt6Quick3DGlslParser.so.6:_ZNK4GLSL10VectorType4findERK7QString@@Qt_6_PRIVATE_API
libQt6Quick3DGlslParser.so.6:_ZNK4GLSL10VectorType8toStringEv@@Qt_6_PRIVATE_API
libQt6Quick3DGlslParser.so.6:_ZNK4GLSL10VectorType9isEqualToEPKNS_4TypeE@@Qt_6_PRIVATE_API
libQt6Quick3DGlslParser.so.6:_ZNK4GLSL11OverloadSet10isLessThanEPKNS_4TypeE@@Qt_6_PRIVATE_API
libQt6Quick3DGlslParser.so.6:_ZNK4GLSL11OverloadSet4findERK7QString@@Qt_6_PRIVATE_API
libQt6Quick3DGlslParser.so.6:_ZNK4GLSL11OverloadSet4typeEv@@Qt_6_PRIVATE_API
libQt6Quick3DGlslParser.so.6:_ZNK4GLSL11OverloadSet9functionsEv@@Qt_6_PRIVATE_API
libQt6Quick3DGlslParser.so.6:_ZNK4GLSL11OverloadSet9isEqualToEPKNS_4TypeE@@Qt_6_PRIVATE_API
libQt6Quick3DGlslParser.so.6:_ZNK4GLSL11SamplerType10isLessThanEPKNS_4TypeE@@Qt_6_PRIVATE_API
libQt6Quick3DGlslParser.so.6:_ZNK4GLSL11SamplerType8toStringEv@@Qt_6_PRIVATE_API
libQt6Quick3DGlslParser.so.6:_ZNK4GLSL11SamplerType9isEqualToEPKNS_4TypeE@@Qt_6_PRIVATE_API
libQt6Quick3DGlslParser.so.6:_ZNK4GLSL12ArrayTypeAST9precisionEv@@Qt_6_PRIVATE_API
libQt6Quick3DGlslParser.so.6:_ZNK4GLSL12BasicTypeAST9precisionEv@@Qt_6_PRIVATE_API
libQt6Quick3DGlslParser.so.6:_ZNK4GLSL12NamedTypeAST9precisionEv@@Qt_6_PRIVATE_API
libQt6Quick3DGlslParser.so.6:_ZNK4GLSL13StructTypeAST9precisionEv@@Qt_6_PRIVATE_API
libQt6Quick3DGlslParser.so.6:_ZNK4GLSL13UndefinedType10isLessThanEPKNS_4TypeE@@Qt_6_PRIVATE_API
libQt6Quick3DGlslParser.so.6:_ZNK4GLSL13UndefinedType9isEqualToEPKNS_4TypeE@@Qt_6_PRIVATE_API
libQt6Quick3DGlslParser.so.6:_ZNK4GLSL17DiagnosticMessage4kindEv@@Qt_6_PRIVATE_API
libQt6Quick3DGlslParser.so.6:_ZNK4GLSL17DiagnosticMessage4lineEv@@Qt_6_PRIVATE_API
libQt6Quick3DGlslParser.so.6:_ZNK4GLSL17DiagnosticMessage7isErrorEv@@Qt_6_PRIVATE_API
libQt6Quick3DGlslParser.so.6:_ZNK4GLSL17DiagnosticMessage7messageEv@@Qt_6_PRIVATE_API
libQt6Quick3DGlslParser.so.6:_ZNK4GLSL17DiagnosticMessage8fileNameEv@@Qt_6_PRIVATE_API
libQt6Quick3DGlslParser.so.6:_ZNK4GLSL17DiagnosticMessage9isWarningEv@@Qt_6_PRIVATE_API
libQt6Quick3DGlslParser.so.6:_ZNK4GLSL5Block4findERK7QString@@Qt_6_PRIVATE_API
libQt6Quick3DGlslParser.so.6:_ZNK4GLSL5Block4typeEv@@Qt_6_PRIVATE_API
libQt6Quick3DGlslParser.so.6:_ZNK4GLSL5Block7membersEv@@Qt_6_PRIVATE_API
libQt6Quick3DGlslParser.so.6:_ZNK4GLSL5Lexer11findKeywordEPKci@@Qt_6_PRIVATE_API
libQt6Quick3DGlslParser.so.6:_ZNK4GLSL5Scope6lookupERK7QString@@Qt_6_PRIVATE_API
libQt6Quick3DGlslParser.so.6:_ZNK4GLSL5Scope7membersEv@@Qt_6_PRIVATE_API
libQt6Quick3DGlslParser.so.6:_ZNK4GLSL6Engine11identifiersEv@@Qt_6_PRIVATE_API
libQt6Quick3DGlslParser.so.6:_ZNK4GLSL6Engine18diagnosticMessagesEv@@Qt_6_PRIVATE_API
libQt6Quick3DGlslParser.so.6:_ZNK4GLSL6Engine7numbersEv@@Qt_6_PRIVATE_API
libQt6Quick3DGlslParser.so.6:_ZNK4GLSL6Struct10isLessThanEPKNS_4TypeE@@Qt_6_PRIVATE_API
libQt6Quick3DGlslParser.so.6:_ZNK4GLSL6Struct4findERK7QString@@Qt_6_PRIVATE_API
libQt6Quick3DGlslParser.so.6:_ZNK4GLSL6Struct7membersEv@@Qt_6_PRIVATE_API
libQt6Quick3DGlslParser.so.6:_ZNK4GLSL6Struct9isEqualToEPKNS_4TypeE@@Qt_6_PRIVATE_API
libQt6Quick3DGlslParser.so.6:_ZNK4GLSL6Symbol4nameEv@@Qt_6_PRIVATE_API
libQt6Quick3DGlslParser.so.6:_ZNK4GLSL6Symbol5scopeEv@@Qt_6_PRIVATE_API
libQt6Quick3DGlslParser.so.6:_ZNK4GLSL7IntType10isLessThanEPKNS_4TypeE@@Qt_6_PRIVATE_API
libQt6Quick3DGlslParser.so.6:_ZNK4GLSL7IntType9isEqualToEPKNS_4TypeE@@Qt_6_PRIVATE_API
libQt6Quick3DGlslParser.so.6:_ZNK4GLSL8Argument4typeEv@@Qt_6_PRIVATE_API
libQt6Quick3DGlslParser.so.6:_ZNK4GLSL8BoolType10isLessThanEPKNS_4TypeE@@Qt_6_PRIVATE_API
libQt6Quick3DGlslParser.so.6:_ZNK4GLSL8BoolType9isEqualToEPKNS_4TypeE@@Qt_6_PRIVATE_API
libQt6Quick3DGlslParser.so.6:_ZNK4GLSL8Function10argumentAtEi@@Qt_6_PRIVATE_API
libQt6Quick3DGlslParser.so.6:_ZNK4GLSL8Function10isLessThanEPKNS_4TypeE@@Qt_6_PRIVATE_API
libQt6Quick3DGlslParser.so.6:_ZNK4GLSL8Function10returnTypeEv@@Qt_6_PRIVATE_API
libQt6Quick3DGlslParser.so.6:_ZNK4GLSL8Function11prettyPrintEv@@Qt_6_PRIVATE_API
libQt6Quick3DGlslParser.so.6:_ZNK4GLSL8Function13argumentCountEv@@Qt_6_PRIVATE_API
libQt6Quick3DGlslParser.so.6:_ZNK4GLSL8Function4findERK7QString@@Qt_6_PRIVATE_API
libQt6Quick3DGlslParser.so.6:_ZNK4GLSL8Function7membersEv@@Qt_6_PRIVATE_API
libQt6Quick3DGlslParser.so.6:_ZNK4GLSL8Function8toStringEv@@Qt_6_PRIVATE_API
libQt6Quick3DGlslParser.so.6:_ZNK4GLSL8Function9argumentsEv@@Qt_6_PRIVATE_API
libQt6Quick3DGlslParser.so.6:_ZNK4GLSL8Function9isEqualToEPKNS_4TypeE@@Qt_6_PRIVATE_API
libQt6Quick3DGlslParser.so.6:_ZNK4GLSL8Semantic12implicitCastEPKNS_4TypeES3_@@Qt_6_PRIVATE_API
libQt6Quick3DGlslParser.so.6:_ZNK4GLSL8UIntType10isLessThanEPKNS_4TypeE@@Qt_6_PRIVATE_API
libQt6Quick3DGlslParser.so.6:_ZNK4GLSL8UIntType9isEqualToEPKNS_4TypeE@@Qt_6_PRIVATE_API
libQt6Quick3DGlslParser.so.6:_ZNK4GLSL8Variable4typeEv@@Qt_6_PRIVATE_API
libQt6Quick3DGlslParser.so.6:_ZNK4GLSL8VoidType10isLessThanEPKNS_4TypeE@@Qt_6_PRIVATE_API
libQt6Quick3DGlslParser.so.6:_ZNK4GLSL8VoidType9isEqualToEPKNS_4TypeE@@Qt_6_PRIVATE_API
libQt6Quick3DGlslParser.so.6:_ZNK4GLSL9ArrayType10isLessThanEPKNS_4TypeE@@Qt_6_PRIVATE_API
libQt6Quick3DGlslParser.so.6:_ZNK4GLSL9ArrayType8toStringEv@@Qt_6_PRIVATE_API
libQt6Quick3DGlslParser.so.6:_ZNK4GLSL9ArrayType9isEqualToEPKNS_4TypeE@@Qt_6_PRIVATE_API
libQt6Quick3DGlslParser.so.6:_ZNK4GLSL9FloatType10isLessThanEPKNS_4TypeE@@Qt_6_PRIVATE_API
libQt6Quick3DGlslParser.so.6:_ZNK4GLSL9FloatType9isEqualToEPKNS_4TypeE@@Qt_6_PRIVATE_API
libQt6Quick3DGlslParser.so.6:_ZNK4GLSL9Namespace4findERK7QString@@Qt_6_PRIVATE_API
libQt6Quick3DGlslParser.so.6:_ZNK4GLSL9Namespace4typeEv@@Qt_6_PRIVATE_API
libQt6Quick3DGlslParser.so.6:_ZNK4GLSL9Namespace7membersEv@@Qt_6_PRIVATE_API
libQt6Quick3DGlslParser.so.6:_ZThn16_N4GLSL10VectorType3addEPNS_6SymbolE@@Qt_6_PRIVATE_API
libQt6Quick3DGlslParser.so.6:_ZThn16_NK4GLSL10VectorType4findERK7QString@@Qt_6_PRIVATE_API
libQt6Quick3DGlslParser.so.6:_ZThn8_N4GLSL11OverloadSet3addEPNS_6SymbolE@@Qt_6_PRIVATE_API
libQt6Quick3DGlslParser.so.6:_ZThn8_N4GLSL6Struct3addEPNS_6SymbolE@@Qt_6_PRIVATE_API
libQt6Quick3DGlslParser.so.6:_ZThn8_NK4GLSL11OverloadSet4findERK7QString@@Qt_6_PRIVATE_API
libQt6Quick3DGlslParser.so.6:_ZThn8_NK4GLSL11OverloadSet4typeEv@@Qt_6_PRIVATE_API
libQt6Quick3DGlslParser.so.6:_ZThn8_NK4GLSL6Struct4findERK7QString@@Qt_6_PRIVATE_API
libQt6Quick3DGlslParser.so.6:_ZThn8_NK4GLSL6Struct7membersEv@@Qt_6_PRIVATE_API
libQt6Quick3DGlslParser.so.6:_ZThn8_NK4GLSL8Function4findERK7QString@@Qt_6_PRIVATE_API
libQt6Quick3DGlslParser.so.6:_ZThn8_NK4GLSL8Function7membersEv@@Qt_6_PRIVATE_API
libQt6Quick3DHelpers.so.6:NonQt
libQt6Quick3DHelpers.so.6:Qt_6
libQt6Quick3DHelpers.so.6:Qt_6_PRIVATE_API
libQt6Quick3DHelpers.so.6:_Z36qml_register_types_QtQuick3D_Helpersv@@Qt_6
libQt6Quick3DHelpersImpl.so.6:NonQt
libQt6Quick3DHelpersImpl.so.6:Qt_6
libQt6Quick3DHelpersImpl.so.6:Qt_6_PRIVATE_API
libQt6Quick3DHelpersImpl.so.6:_Z41qml_register_types_QtQuick3D_Helpers_implv@@Qt_6
libQt6Quick3DIblBaker.so.6:NonQt
libQt6Quick3DIblBaker.so.6:Qt_6
libQt6Quick3DIblBaker.so.6:Qt_6_PRIVATE_API
libQt6Quick3DIblBaker.so.6:_ZN12QSSGIblBaker6importERK7QStringRK4QDirP5QListIS0_E@@Qt_6_PRIVATE_API
libQt6Quick3DIblBaker.so.6:_ZNK12QSSGIblBaker15inputExtensionsEv@@Qt_6_PRIVATE_API
libQt6Quick3DIblBaker.so.6:_ZNK12QSSGIblBaker15outputExtensionEv@@Qt_6_PRIVATE_API
libQt6Quick3DParticleEffects.so.6:_Z44qml_register_types_QtQuick3D_ParticleEffectsv
libQt6Quick3DParticles.so.6:NonQt
libQt6Quick3DParticles.so.6:Qt_6
libQt6Quick3DParticles.so.6:Qt_6_PRIVATE_API
libQt6Quick3DParticles.so.6:_Z40qml_register_types_QtQuick3D_Particles3Dv@@Qt_6
libQt6Quick3DParticles.so.6:_ZN16QQuick3DParticle10resetColorEv@@Qt_6_PRIVATE_API
libQt6Quick3DParticles.so.6:_ZN16QQuick3DParticle11qt_metacallEN11QMetaObject4CallEiPPv@@Qt_6_PRIVATE_API
libQt6Quick3DParticles.so.6:_ZN16QQuick3DParticle11qt_metacastEPKc@@Qt_6_PRIVATE_API
libQt6Quick3DParticles.so.6:_ZN16QQuick3DParticle11setSortModeENS_8SortModeE@@Qt_6_PRIVATE_API
libQt6Quick3DParticles.so.6:_ZN16QQuick3DParticle12colorChangedEv@@Qt_6_PRIVATE_API
libQt6Quick3DParticles.so.6:_ZN16QQuick3DParticle12setAlignModeENS_9AlignModeE@@Qt_6_PRIVATE_API
libQt6Quick3DParticles.so.6:_ZN16QQuick3DParticle12setMaxAmountEi@@Qt_6_PRIVATE_API
libQt6Quick3DParticles.so.6:_ZN16QQuick3DParticle13systemChangedEv@@Qt_6_PRIVATE_API
libQt6Quick3DParticles.so.6:_ZN16QQuick3DParticle14doSetMaxAmountEi@@Qt_6_PRIVATE_API
libQt6Quick3DParticles.so.6:_ZN16QQuick3DParticle15setFadeInEffectENS_8FadeTypeE@@Qt_6_PRIVATE_API
libQt6Quick3DParticles.so.6:_ZN16QQuick3DParticle15sortModeChangedEv@@Qt_6_PRIVATE_API
libQt6Quick3DParticles.so.6:_ZN16QQuick3DParticle16alignModeChangedEv@@Qt_6_PRIVATE_API
libQt6Quick3DParticles.so.6:_ZN16QQuick3DParticle16maxAmountChangedEv@@Qt_6_PRIVATE_API
libQt6Quick3DParticles.so.6:_ZN16QQuick3DParticle16nextCurrentIndexEPK23QQuick3DParticleEmitter@@Qt_6_PRIVATE_API
libQt6Quick3DParticles.so.6:_ZN16QQuick3DParticle16setFadeOutEffectENS_8FadeTypeE@@Qt_6_PRIVATE_API
libQt6Quick3DParticles.so.6:_ZN16QQuick3DParticle16updateBurstIndexEi@@Qt_6_PRIVATE_API
libQt6Quick3DParticles.so.6:_ZN16QQuick3DParticle17componentCompleteEv@@Qt_6_PRIVATE_API
libQt6Quick3DParticles.so.6:_ZN16QQuick3DParticle17setColorVariationE9QVector4D@@Qt_6_PRIVATE_API
libQt6Quick3DParticles.so.6:_ZN16QQuick3DParticle17setFadeInDurationEi@@Qt_6_PRIVATE_API
libQt6Quick3DParticles.so.6:_ZN16QQuick3DParticle18setFadeOutDurationEi@@Qt_6_PRIVATE_API
libQt6Quick3DParticles.so.6:_ZN16QQuick3DParticle18setHasTransparencyEb@@Qt_6_PRIVATE_API
libQt6Quick3DParticles.so.6:_ZN16QQuick3DParticle19fadeInEffectChangedEv@@Qt_6_PRIVATE_API
libQt6Quick3DParticles.so.6:_ZN16QQuick3DParticle20fadeOutEffectChangedEv@@Qt_6_PRIVATE_API
libQt6Quick3DParticles.so.6:_ZN16QQuick3DParticle21colorVariationChangedEv@@Qt_6_PRIVATE_API
libQt6Quick3DParticles.so.6:_ZN16QQuick3DParticle21fadeInDurationChangedEv@@Qt_6_PRIVATE_API
libQt6Quick3DParticles.so.6:_ZN16QQuick3DParticle22fadeOutDurationChangedEv@@Qt_6_PRIVATE_API
libQt6Quick3DParticles.so.6:_ZN16QQuick3DParticle22hasTransparencyChangedEv@@Qt_6_PRIVATE_API
libQt6Quick3DParticles.so.6:_ZN16QQuick3DParticle22setAlignTargetPositionERK9QVector3D@@Qt_6_PRIVATE_API
libQt6Quick3DParticles.so.6:_ZN16QQuick3DParticle24setUnifiedColorVariationEb@@Qt_6_PRIVATE_API
libQt6Quick3DParticles.so.6:_ZN16QQuick3DParticle26alignTargetPositionChangedEv@@Qt_6_PRIVATE_API
libQt6Quick3DParticles.so.6:_ZN16QQuick3DParticle28unifiedColorVariationChangedEv@@Qt_6_PRIVATE_API
libQt6Quick3DParticles.so.6:_ZN16QQuick3DParticle5resetEv@@Qt_6_PRIVATE_API
libQt6Quick3DParticles.so.6:_ZN16QQuick3DParticle8setColorE6QColor@@Qt_6_PRIVATE_API
libQt6Quick3DParticles.so.6:_ZN16QQuick3DParticle9setSystemEP22QQuick3DParticleSystem@@Qt_6_PRIVATE_API
libQt6Quick3DParticles.so.6:_ZN16QQuick3DParticleC1EP14QQuick3DObject@@Qt_6_PRIVATE_API
libQt6Quick3DParticles.so.6:_ZN16QQuick3DParticleC1ER21QQuick3DObjectPrivateP12QQuick3DNode@@Qt_6_PRIVATE_API
libQt6Quick3DParticles.so.6:_ZN16QQuick3DParticleC2EP14QQuick3DObject@@Qt_6_PRIVATE_API
libQt6Quick3DParticles.so.6:_ZN16QQuick3DParticleC2ER21QQuick3DObjectPrivateP12QQuick3DNode@@Qt_6_PRIVATE_API
libQt6Quick3DParticles.so.6:_ZN16QQuick3DParticleD0Ev@@Qt_6_PRIVATE_API
libQt6Quick3DParticles.so.6:_ZN16QQuick3DParticleD1Ev@@Qt_6_PRIVATE_API
libQt6Quick3DParticles.so.6:_ZN16QQuick3DParticleD2Ev@@Qt_6_PRIVATE_API
libQt6Quick3DParticles.so.6:_ZN21QQuick3DParticleShape10setExtentsE9QVector3D@@Qt_6_PRIVATE_API
libQt6Quick3DParticles.so.6:_ZN21QQuick3DParticleShape11fillChangedEv@@Qt_6_PRIVATE_API
libQt6Quick3DParticles.so.6:_ZN21QQuick3DParticleShape11getPositionEi@@Qt_6_PRIVATE_API
libQt6Quick3DParticles.so.6:_ZN21QQuick3DParticleShape11qt_metacallEN11QMetaObject4CallEiPPv@@Qt_6_PRIVATE_API
libQt6Quick3DParticles.so.6:_ZN21QQuick3DParticleShape11qt_metacastEPKc@@Qt_6_PRIVATE_API
libQt6Quick3DParticles.so.6:_ZN21QQuick3DParticleShape11typeChangedEv@@Qt_6_PRIVATE_API
libQt6Quick3DParticles.so.6:_ZN21QQuick3DParticleShape14extentsChangedEv@@Qt_6_PRIVATE_API
libQt6Quick3DParticles.so.6:_ZN21QQuick3DParticleShape7setFillEb@@Qt_6_PRIVATE_API
libQt6Quick3DParticles.so.6:_ZN21QQuick3DParticleShape7setTypeENS_9ShapeTypeE@@Qt_6_PRIVATE_API
libQt6Quick3DParticles.so.6:_ZN21QQuick3DParticleShapeC1EP7QObject@@Qt_6_PRIVATE_API
libQt6Quick3DParticles.so.6:_ZN21QQuick3DParticleShapeC2EP7QObject@@Qt_6_PRIVATE_API
libQt6Quick3DParticles.so.6:_ZN22QQuick3DParticleSystem10setLoggingEb@@Qt_6_PRIVATE_API
libQt6Quick3DParticles.so.6:_ZN22QQuick3DParticleSystem10setRunningEb@@Qt_6_PRIVATE_API
libQt6Quick3DParticles.so.6:_ZN22QQuick3DParticleSystem11qt_metacallEN11QMetaObject4CallEiPPv@@Qt_6_PRIVATE_API
libQt6Quick3DParticles.so.6:_ZN22QQuick3DParticleSystem11qt_metacastEPKc@@Qt_6_PRIVATE_API
libQt6Quick3DParticles.so.6:_ZN22QQuick3DParticleSystem11seedChangedEv@@Qt_6_PRIVATE_API
libQt6Quick3DParticles.so.6:_ZN22QQuick3DParticleSystem11timeChangedEv@@Qt_6_PRIVATE_API
libQt6Quick3DParticles.so.6:_ZN22QQuick3DParticleSystem12setStartTimeEi@@Qt_6_PRIVATE_API
libQt6Quick3DParticles.so.6:_ZN22QQuick3DParticleSystem13pausedChangedEv@@Qt_6_PRIVATE_API
libQt6Quick3DParticles.so.6:_ZN22QQuick3DParticleSystem13setEditorTimeEi@@Qt_6_PRIVATE_API
libQt6Quick3DParticles.so.6:_ZN22QQuick3DParticleSystem14isEditorModeOnEv@@Qt_6_PRIVATE_API
libQt6Quick3DParticles.so.6:_ZN22QQuick3DParticleSystem14loggingChangedEv@@Qt_6_PRIVATE_API
libQt6Quick3DParticles.so.6:_ZN22QQuick3DParticleSystem14runningChangedEv@@Qt_6_PRIVATE_API
libQt6Quick3DParticles.so.6:_ZN22QQuick3DParticleSystem16registerParticleEP16QQuick3DParticle@@Qt_6_PRIVATE_API
libQt6Quick3DParticles.so.6:_ZN22QQuick3DParticleSystem16setUseRandomSeedEb@@Qt_6_PRIVATE_API
libQt6Quick3DParticles.so.6:_ZN22QQuick3DParticleSystem16startTimeChangedEv@@Qt_6_PRIVATE_API
libQt6Quick3DParticles.so.6:_ZN22QQuick3DParticleSystem17componentCompleteEv@@Qt_6_PRIVATE_API
libQt6Quick3DParticles.so.6:_ZN22QQuick3DParticleSystem17updateCurrentTimeEi@@Qt_6_PRIVATE_API
libQt6Quick3DParticles.so.6:_ZN22QQuick3DParticleSystem17updateLoggingDataEv@@Qt_6_PRIVATE_API
libQt6Quick3DParticles.so.6:_ZN22QQuick3DParticleSystem18isGloballyDisabledEv@@Qt_6_PRIVATE_API
libQt6Quick3DParticles.so.6:_ZN22QQuick3DParticleSystem18loggingDataChangedEv@@Qt_6_PRIVATE_API
libQt6Quick3DParticles.so.6:_ZN22QQuick3DParticleSystem18unRegisterParticleEP16QQuick3DParticle@@Qt_6_PRIVATE_API
libQt6Quick3DParticles.so.6:_ZN22QQuick3DParticleSystem19doSeedRandomizationEv@@Qt_6_PRIVATE_API
libQt6Quick3DParticles.so.6:_ZN22QQuick3DParticleSystem20processModelParticleEP29QQuick3DParticleModelParticleRK5QListINS_10TrailEmitsEEf@@Qt_6_PRIVATE_API
libQt6Quick3DParticles.so.6:_ZN22QQuick3DParticleSystem20useRandomSeedChangedEv@@Qt_6_PRIVATE_API
libQt6Quick3DParticles.so.6:_ZN22QQuick3DParticleSystem21processParticleCommonER27QQuick3DParticleDataCurrentPK20QQuick3DParticleDataf@@Qt_6_PRIVATE_API
libQt6Quick3DParticles.so.6:_ZN22QQuick3DParticleSystem21processSpriteParticleEP30QQuick3DParticleSpriteParticleRK5QListINS_10TrailEmitsEEf@@Qt_6_PRIVATE_API
libQt6Quick3DParticles.so.6:_ZN22QQuick3DParticleSystem21registerParticleModelEP29QQuick3DParticleModelParticle@@Qt_6_PRIVATE_API
libQt6Quick3DParticles.so.6:_ZN22QQuick3DParticleSystem21resetLoggingVariablesEv@@Qt_6_PRIVATE_API
libQt6Quick3DParticles.so.6:_ZN22QQuick3DParticleSystem22registerParticleSpriteEP30QQuick3DParticleSpriteParticle@@Qt_6_PRIVATE_API
libQt6Quick3DParticles.so.6:_ZN22QQuick3DParticleSystem23registerParticleEmitterEP23QQuick3DParticleEmitter@@Qt_6_PRIVATE_API
libQt6Quick3DParticles.so.6:_ZN22QQuick3DParticleSystem24processParticleAlignmentER27QQuick3DParticleDataCurrentPK16QQuick3DParticlePK20QQuick3DParticleData@@Qt_6_PRIVATE_API
libQt6Quick3DParticles.so.6:_ZN22QQuick3DParticleSystem24processParticleFadeInOutER27QQuick3DParticleDataCurrentPK16QQuick3DParticleff@@Qt_6_PRIVATE_API
libQt6Quick3DParticles.so.6:_ZN22QQuick3DParticleSystem24registerParticleAffectorEP24QQuick3DParticleAffector@@Qt_6_PRIVATE_API
libQt6Quick3DParticles.so.6:_ZN22QQuick3DParticleSystem25processModelBlendParticleEP34QQuick3DParticleModelBlendParticleRK5QListINS_10TrailEmitsEEf@@Qt_6_PRIVATE_API
libQt6Quick3DParticles.so.6:_ZN22QQuick3DParticleSystem25unRegisterParticleEmitterEP23QQuick3DParticleEmitter@@Qt_6_PRIVATE_API
libQt6Quick3DParticles.so.6:_ZN22QQuick3DParticleSystem26unRegisterParticleAffectorEP24QQuick3DParticleAffector@@Qt_6_PRIVATE_API
libQt6Quick3DParticles.so.6:_ZN22QQuick3DParticleSystem4randEv@@Qt_6_PRIVATE_API
libQt6Quick3DParticles.so.6:_ZN22QQuick3DParticleSystem5resetEv@@Qt_6_PRIVATE_API
libQt6Quick3DParticles.so.6:_ZN22QQuick3DParticleSystem7refreshEv@@Qt_6_PRIVATE_API
libQt6Quick3DParticles.so.6:_ZN22QQuick3DParticleSystem7setSeedEi@@Qt_6_PRIVATE_API
libQt6Quick3DParticles.so.6:_ZN22QQuick3DParticleSystem7setTimeEi@@Qt_6_PRIVATE_API
libQt6Quick3DParticles.so.6:_ZN22QQuick3DParticleSystem9markDirtyEv@@Qt_6_PRIVATE_API
libQt6Quick3DParticles.so.6:_ZN22QQuick3DParticleSystem9setPausedEb@@Qt_6_PRIVATE_API
libQt6Quick3DParticles.so.6:_ZN22QQuick3DParticleSystemC1EP12QQuick3DNode@@Qt_6_PRIVATE_API
libQt6Quick3DParticles.so.6:_ZN22QQuick3DParticleSystemC2EP12QQuick3DNode@@Qt_6_PRIVATE_API
libQt6Quick3DParticles.so.6:_ZN22QQuick3DParticleSystemD0Ev@@Qt_6_PRIVATE_API
libQt6Quick3DParticles.so.6:_ZN22QQuick3DParticleSystemD1Ev@@Qt_6_PRIVATE_API
libQt6Quick3DParticles.so.6:_ZN22QQuick3DParticleSystemD2Ev@@Qt_6_PRIVATE_API
libQt6Quick3DParticles.so.6:_ZN22QQuick3DParticleWander11qt_metacallEN11QMetaObject4CallEiPPv@@Qt_6_PRIVATE_API
libQt6Quick3DParticles.so.6:_ZN22QQuick3DParticleWander11qt_metacastEPKc@@Qt_6_PRIVATE_API
libQt6Quick3DParticles.so.6:_ZN22QQuick3DParticleWander13setGlobalPaceERK9QVector3D@@Qt_6_PRIVATE_API
libQt6Quick3DParticles.so.6:_ZN22QQuick3DParticleWander13setUniquePaceERK9QVector3D@@Qt_6_PRIVATE_API
libQt6Quick3DParticles.so.6:_ZN22QQuick3DParticleWander14affectParticleERK20QQuick3DParticleDataP27QQuick3DParticleDataCurrentf@@Qt_6_PRIVATE_API
libQt6Quick3DParticles.so.6:_ZN22QQuick3DParticleWander15setGlobalAmountERK9QVector3D@@Qt_6_PRIVATE_API
libQt6Quick3DParticles.so.6:_ZN22QQuick3DParticleWander15setUniqueAmountERK9QVector3D@@Qt_6_PRIVATE_API
libQt6Quick3DParticles.so.6:_ZN22QQuick3DParticleWander17globalPaceChangedEv@@Qt_6_PRIVATE_API
libQt6Quick3DParticles.so.6:_ZN22QQuick3DParticleWander17setFadeInDurationEi@@Qt_6_PRIVATE_API
libQt6Quick3DParticles.so.6:_ZN22QQuick3DParticleWander17uniquePaceChangedEv@@Qt_6_PRIVATE_API
libQt6Quick3DParticles.so.6:_ZN22QQuick3DParticleWander18setFadeOutDurationEi@@Qt_6_PRIVATE_API
libQt6Quick3DParticles.so.6:_ZN22QQuick3DParticleWander18setGlobalPaceStartERK9QVector3D@@Qt_6_PRIVATE_API
libQt6Quick3DParticles.so.6:_ZN22QQuick3DParticleWander19globalAmountChangedEv@@Qt_6_PRIVATE_API
libQt6Quick3DParticles.so.6:_ZN22QQuick3DParticleWander19uniqueAmountChangedEv@@Qt_6_PRIVATE_API
libQt6Quick3DParticles.so.6:_ZN22QQuick3DParticleWander21fadeInDurationChangedEv@@Qt_6_PRIVATE_API
libQt6Quick3DParticles.so.6:_ZN22QQuick3DParticleWander22fadeOutDurationChangedEv@@Qt_6_PRIVATE_API
libQt6Quick3DParticles.so.6:_ZN22QQuick3DParticleWander22globalPaceStartChangedEv@@Qt_6_PRIVATE_API
libQt6Quick3DParticles.so.6:_ZN22QQuick3DParticleWander22setUniquePaceVariationEf@@Qt_6_PRIVATE_API
libQt6Quick3DParticles.so.6:_ZN22QQuick3DParticleWander24setUniqueAmountVariationEf@@Qt_6_PRIVATE_API
libQt6Quick3DParticles.so.6:_ZN22QQuick3DParticleWander26uniquePaceVariationChangedEv@@Qt_6_PRIVATE_API
libQt6Quick3DParticles.so.6:_ZN22QQuick3DParticleWander28uniqueAmountVariationChangedEv@@Qt_6_PRIVATE_API
libQt6Quick3DParticles.so.6:_ZN22QQuick3DParticleWanderC1EP12QQuick3DNode@@Qt_6_PRIVATE_API
libQt6Quick3DParticles.so.6:_ZN22QQuick3DParticleWanderC2EP12QQuick3DNode@@Qt_6_PRIVATE_API
libQt6Quick3DParticles.so.6:_ZN23QQuick3DParticleEmitter10emitBurstsEv@@Qt_6_PRIVATE_API
libQt6Quick3DParticles.so.6:_ZN23QQuick3DParticleEmitter10setEnabledEb@@Qt_6_PRIVATE_API
libQt6Quick3DParticles.so.6:_ZN23QQuick3DParticleEmitter11qt_metacallEN11QMetaObject4CallEiPPv@@Qt_6_PRIVATE_API
libQt6Quick3DParticles.so.6:_ZN23QQuick3DParticleEmitter11qt_metacastEPKc@@Qt_6_PRIVATE_API
libQt6Quick3DParticles.so.6:_ZN23QQuick3DParticleEmitter11setEmitRateEf@@Qt_6_PRIVATE_API
libQt6Quick3DParticles.so.6:_ZN23QQuick3DParticleEmitter11setLifeSpanEi@@Qt_6_PRIVATE_API
libQt6Quick3DParticles.so.6:_ZN23QQuick3DParticleEmitter11setParticleEP16QQuick3DParticle@@Qt_6_PRIVATE_API
libQt6Quick3DParticles.so.6:_ZN23QQuick3DParticleEmitter11setVelocityEP25QQuick3DParticleDirection@@Qt_6_PRIVATE_API
libQt6Quick3DParticles.so.6:_ZN23QQuick3DParticleEmitter12emitParticleEP16QQuick3DParticlefRK10QMatrix4x4RK11QQuaternionRK9QVector3Di@@Qt_6_PRIVATE_API
libQt6Quick3DParticles.so.6:_ZN23QQuick3DParticleEmitter12setDepthBiasEf@@Qt_6_PRIVATE_API
libQt6Quick3DParticles.so.6:_ZN23QQuick3DParticleEmitter12shapeChangedEv@@Qt_6_PRIVATE_API
libQt6Quick3DParticles.so.6:_ZN23QQuick3DParticleEmitter13emitParticlesEv@@Qt_6_PRIVATE_API
libQt6Quick3DParticles.so.6:_ZN23QQuick3DParticleEmitter13getEmitAmountEv@@Qt_6_PRIVATE_API
libQt6Quick3DParticles.so.6:_ZN23QQuick3DParticleEmitter13systemChangedEv@@Qt_6_PRIVATE_API
libQt6Quick3DParticles.so.6:_ZN23QQuick3DParticleEmitter14emitBurstCountEP16QQmlListPropertyI25QQuick3DParticleEmitBurstE@@Qt_6_PRIVATE_API
libQt6Quick3DParticles.so.6:_ZN23QQuick3DParticleEmitter14enabledChangedEv@@Qt_6_PRIVATE_API
libQt6Quick3DParticles.so.6:_ZN23QQuick3DParticleEmitter15appendEmitBurstEP16QQmlListPropertyI25QQuick3DParticleEmitBurstEPS1_@@Qt_6_PRIVATE_API
libQt6Quick3DParticles.so.6:_ZN23QQuick3DParticleEmitter15appendEmitBurstEP25QQuick3DParticleEmitBurst@@Qt_6_PRIVATE_API
libQt6Quick3DParticles.so.6:_ZN23QQuick3DParticleEmitter15clearEmitBurstsEP16QQmlListPropertyI25QQuick3DParticleEmitBurstE@@Qt_6_PRIVATE_API
libQt6Quick3DParticles.so.6:_ZN23QQuick3DParticleEmitter15clearEmitBurstsEv@@Qt_6_PRIVATE_API
libQt6Quick3DParticles.so.6:_ZN23QQuick3DParticleEmitter15emitRateChangedEv@@Qt_6_PRIVATE_API
libQt6Quick3DParticles.so.6:_ZN23QQuick3DParticleEmitter15lifeSpanChangedEv@@Qt_6_PRIVATE_API
libQt6Quick3DParticles.so.6:_ZN23QQuick3DParticleEmitter15particleChangedEv@@Qt_6_PRIVATE_API
libQt6Quick3DParticles.so.6:_ZN23QQuick3DParticleEmitter15velocityChangedEv@@Qt_6_PRIVATE_API
libQt6Quick3DParticles.so.6:_ZN23QQuick3DParticleEmitter16depthBiasChangedEv@@Qt_6_PRIVATE_API
libQt6Quick3DParticles.so.6:_ZN23QQuick3DParticleEmitter16replaceEmitBurstEP16QQmlListPropertyI25QQuick3DParticleEmitBurstExPS1_@@Qt_6_PRIVATE_API
libQt6Quick3DParticles.so.6:_ZN23QQuick3DParticleEmitter16replaceEmitBurstExP25QQuick3DParticleEmitBurst@@Qt_6_PRIVATE_API
libQt6Quick3DParticles.so.6:_ZN23QQuick3DParticleEmitter16setParticleScaleEf@@Qt_6_PRIVATE_API
libQt6Quick3DParticles.so.6:_ZN23QQuick3DParticleEmitter17componentCompleteEv@@Qt_6_PRIVATE_API
libQt6Quick3DParticles.so.6:_ZN23QQuick3DParticleEmitter17registerEmitBurstEP25QQuick3DParticleEmitBurst@@Qt_6_PRIVATE_API
libQt6Quick3DParticles.so.6:_ZN23QQuick3DParticleEmitter18emitParticlesBurstERK29QQuick3DParticleEmitBurstData@@Qt_6_PRIVATE_API
libQt6Quick3DParticles.so.6:_ZN23QQuick3DParticleEmitter18generateEmitBurstsEv@@Qt_6_PRIVATE_API
libQt6Quick3DParticles.so.6:_ZN23QQuick3DParticleEmitter19removeLastEmitBurstEP16QQmlListPropertyI25QQuick3DParticleEmitBurstE@@Qt_6_PRIVATE_API
libQt6Quick3DParticles.so.6:_ZN23QQuick3DParticleEmitter19removeLastEmitBurstEv@@Qt_6_PRIVATE_API
libQt6Quick3DParticles.so.6:_ZN23QQuick3DParticleEmitter19setParticleEndScaleEf@@Qt_6_PRIVATE_API
libQt6Quick3DParticles.so.6:_ZN23QQuick3DParticleEmitter19setParticleRotationERK9QVector3D@@Qt_6_PRIVATE_API
libQt6Quick3DParticles.so.6:_ZN23QQuick3DParticleEmitter19unRegisterEmitBurstEP25QQuick3DParticleEmitBurst@@Qt_6_PRIVATE_API
libQt6Quick3DParticles.so.6:_ZN23QQuick3DParticleEmitter20particleScaleChangedEv@@Qt_6_PRIVATE_API
libQt6Quick3DParticles.so.6:_ZN23QQuick3DParticleEmitter20setLifeSpanVariationEi@@Qt_6_PRIVATE_API
libQt6Quick3DParticles.so.6:_ZN23QQuick3DParticleEmitter23particleEndScaleChangedEv@@Qt_6_PRIVATE_API
libQt6Quick3DParticles.so.6:_ZN23QQuick3DParticleEmitter23particleRotationChangedEv@@Qt_6_PRIVATE_API
libQt6Quick3DParticles.so.6:_ZN23QQuick3DParticleEmitter24lifeSpanVariationChangedEv@@Qt_6_PRIVATE_API
libQt6Quick3DParticles.so.6:_ZN23QQuick3DParticleEmitter25setParticleScaleVariationEf@@Qt_6_PRIVATE_API
libQt6Quick3DParticles.so.6:_ZN23QQuick3DParticleEmitter27emitActivationNodeParticlesEP34QQuick3DParticleModelBlendParticle@@Qt_6_PRIVATE_API
libQt6Quick3DParticles.so.6:_ZN23QQuick3DParticleEmitter27setParticleRotationVelocityERK9QVector3D@@Qt_6_PRIVATE_API
libQt6Quick3DParticles.so.6:_ZN23QQuick3DParticleEmitter28setParticleEndScaleVariationEf@@Qt_6_PRIVATE_API
libQt6Quick3DParticles.so.6:_ZN23QQuick3DParticleEmitter28setParticleRotationVariationERK9QVector3D@@Qt_6_PRIVATE_API
libQt6Quick3DParticles.so.6:_ZN23QQuick3DParticleEmitter29particleScaleVariationChangedEv@@Qt_6_PRIVATE_API
libQt6Quick3DParticles.so.6:_ZN23QQuick3DParticleEmitter30getEmitAmountFromDynamicBurstsEi@@Qt_6_PRIVATE_API
libQt6Quick3DParticles.so.6:_ZN23QQuick3DParticleEmitter31particleRotationVelocityChangedEv@@Qt_6_PRIVATE_API
libQt6Quick3DParticles.so.6:_ZN23QQuick3DParticleEmitter32particleEndScaleVariationChangedEv@@Qt_6_PRIVATE_API
libQt6Quick3DParticles.so.6:_ZN23QQuick3DParticleEmitter32particleRotationVariationChangedEv@@Qt_6_PRIVATE_API
libQt6Quick3DParticles.so.6:_ZN23QQuick3DParticleEmitter36setParticleRotationVelocityVariationERK9QVector3D@@Qt_6_PRIVATE_API
libQt6Quick3DParticles.so.6:_ZN23QQuick3DParticleEmitter40particleRotationVariationVelocityChangedEv@@Qt_6_PRIVATE_API
libQt6Quick3DParticles.so.6:_ZN23QQuick3DParticleEmitter5burstEi@@Qt_6_PRIVATE_API
libQt6Quick3DParticles.so.6:_ZN23QQuick3DParticleEmitter5burstEii@@Qt_6_PRIVATE_API
libQt6Quick3DParticles.so.6:_ZN23QQuick3DParticleEmitter5burstEiiRK9QVector3D@@Qt_6_PRIVATE_API
libQt6Quick3DParticles.so.6:_ZN23QQuick3DParticleEmitter5resetEv@@Qt_6_PRIVATE_API
libQt6Quick3DParticles.so.6:_ZN23QQuick3DParticleEmitter8setShapeEP29QQuick3DParticleAbstractShape@@Qt_6_PRIVATE_API
libQt6Quick3DParticles.so.6:_ZN23QQuick3DParticleEmitter9emitBurstEP16QQmlListPropertyI25QQuick3DParticleEmitBurstEx@@Qt_6_PRIVATE_API
libQt6Quick3DParticles.so.6:_ZN23QQuick3DParticleEmitter9setSystemEP22QQuick3DParticleSystem@@Qt_6_PRIVATE_API
libQt6Quick3DParticles.so.6:_ZN23QQuick3DParticleEmitterC1EP12QQuick3DNode@@Qt_6_PRIVATE_API
libQt6Quick3DParticles.so.6:_ZN23QQuick3DParticleEmitterC2EP12QQuick3DNode@@Qt_6_PRIVATE_API
libQt6Quick3DParticles.so.6:_ZN23QQuick3DParticleEmitterD0Ev@@Qt_6_PRIVATE_API
libQt6Quick3DParticles.so.6:_ZN23QQuick3DParticleEmitterD1Ev@@Qt_6_PRIVATE_API
libQt6Quick3DParticles.so.6:_ZN23QQuick3DParticleEmitterD2Ev@@Qt_6_PRIVATE_API
libQt6Quick3DParticles.so.6:_ZN23QQuick3DParticleGravity11qt_metacallEN11QMetaObject4CallEiPPv@@Qt_6_PRIVATE_API
libQt6Quick3DParticles.so.6:_ZN23QQuick3DParticleGravity11qt_metacastEPKc@@Qt_6_PRIVATE_API
libQt6Quick3DParticles.so.6:_ZN23QQuick3DParticleGravity12setDirectionERK9QVector3D@@Qt_6_PRIVATE_API
libQt6Quick3DParticles.so.6:_ZN23QQuick3DParticleGravity12setMagnitudeEf@@Qt_6_PRIVATE_API
libQt6Quick3DParticles.so.6:_ZN23QQuick3DParticleGravity14affectParticleERK20QQuick3DParticleDataP27QQuick3DParticleDataCurrentf@@Qt_6_PRIVATE_API
libQt6Quick3DParticles.so.6:_ZN23QQuick3DParticleGravity16directionChangedEv@@Qt_6_PRIVATE_API
libQt6Quick3DParticles.so.6:_ZN23QQuick3DParticleGravity16magnitudeChangedEv@@Qt_6_PRIVATE_API
libQt6Quick3DParticles.so.6:_ZN23QQuick3DParticleGravityC1EP12QQuick3DNode@@Qt_6_PRIVATE_API
libQt6Quick3DParticles.so.6:_ZN23QQuick3DParticleGravityC2EP12QQuick3DNode@@Qt_6_PRIVATE_API
libQt6Quick3DParticles.so.6:_ZN24QQuick3DParticleAffector10setEnabledEb@@Qt_6_PRIVATE_API
libQt6Quick3DParticles.so.6:_ZN24QQuick3DParticleAffector11qt_metacallEN11QMetaObject4CallEiPPv@@Qt_6_PRIVATE_API
libQt6Quick3DParticles.so.6:_ZN24QQuick3DParticleAffector11qt_metacastEPKc@@Qt_6_PRIVATE_API
libQt6Quick3DParticles.so.6:_ZN24QQuick3DParticleAffector13particleCountEP16QQmlListPropertyI16QQuick3DParticleE@@Qt_6_PRIVATE_API
libQt6Quick3DParticles.so.6:_ZN24QQuick3DParticleAffector13systemChangedEv@@Qt_6_PRIVATE_API
libQt6Quick3DParticles.so.6:_ZN24QQuick3DParticleAffector14appendParticleEP16QQmlListPropertyI16QQuick3DParticleEPS1_@@Qt_6_PRIVATE_API
libQt6Quick3DParticles.so.6:_ZN24QQuick3DParticleAffector14appendParticleEP16QQuick3DParticle@@Qt_6_PRIVATE_API
libQt6Quick3DParticles.so.6:_ZN24QQuick3DParticleAffector14clearParticlesEP16QQmlListPropertyI16QQuick3DParticleE@@Qt_6_PRIVATE_API
libQt6Quick3DParticles.so.6:_ZN24QQuick3DParticleAffector14clearParticlesEv@@Qt_6_PRIVATE_API
libQt6Quick3DParticles.so.6:_ZN24QQuick3DParticleAffector14enabledChangedEv@@Qt_6_PRIVATE_API
libQt6Quick3DParticles.so.6:_ZN24QQuick3DParticleAffector15prepareToAffectEv@@Qt_6_PRIVATE_API
libQt6Quick3DParticles.so.6:_ZN24QQuick3DParticleAffector15replaceParticleEP16QQmlListPropertyI16QQuick3DParticleExPS1_@@Qt_6_PRIVATE_API
libQt6Quick3DParticles.so.6:_ZN24QQuick3DParticleAffector15replaceParticleExP16QQuick3DParticle@@Qt_6_PRIVATE_API
libQt6Quick3DParticles.so.6:_ZN24QQuick3DParticleAffector17componentCompleteEv@@Qt_6_PRIVATE_API
libQt6Quick3DParticles.so.6:_ZN24QQuick3DParticleAffector18removeLastParticleEP16QQmlListPropertyI16QQuick3DParticleE@@Qt_6_PRIVATE_API
libQt6Quick3DParticles.so.6:_ZN24QQuick3DParticleAffector18removeLastParticleEv@@Qt_6_PRIVATE_API
libQt6Quick3DParticles.so.6:_ZN24QQuick3DParticleAffector6updateEv@@Qt_6_PRIVATE_API
libQt6Quick3DParticles.so.6:_ZN24QQuick3DParticleAffector8particleEP16QQmlListPropertyI16QQuick3DParticleEx@@Qt_6_PRIVATE_API
libQt6Quick3DParticles.so.6:_ZN24QQuick3DParticleAffector9particlesEv@@Qt_6_PRIVATE_API
libQt6Quick3DParticles.so.6:_ZN24QQuick3DParticleAffector9setSystemEP22QQuick3DParticleSystem@@Qt_6_PRIVATE_API
libQt6Quick3DParticles.so.6:_ZN24QQuick3DParticleAffectorC1EP12QQuick3DNode@@Qt_6_PRIVATE_API
libQt6Quick3DParticles.so.6:_ZN24QQuick3DParticleAffectorC2EP12QQuick3DNode@@Qt_6_PRIVATE_API
libQt6Quick3DParticles.so.6:_ZN24QQuick3DParticleAffectorD0Ev@@Qt_6_PRIVATE_API
libQt6Quick3DParticles.so.6:_ZN24QQuick3DParticleAffectorD1Ev@@Qt_6_PRIVATE_API
libQt6Quick3DParticles.so.6:_ZN24QQuick3DParticleAffectorD2Ev@@Qt_6_PRIVATE_API
libQt6Quick3DParticles.so.6:_ZN24QQuick3DParticleRepeller11qt_metacallEN11QMetaObject4CallEiPPv@@Qt_6_PRIVATE_API
libQt6Quick3DParticles.so.6:_ZN24QQuick3DParticleRepeller11qt_metacastEPKc@@Qt_6_PRIVATE_API
libQt6Quick3DParticles.so.6:_ZN24QQuick3DParticleRepeller11setStrengthEf@@Qt_6_PRIVATE_API
libQt6Quick3DParticles.so.6:_ZN24QQuick3DParticleRepeller13radiusChangedEv@@Qt_6_PRIVATE_API
libQt6Quick3DParticles.so.6:_ZN24QQuick3DParticleRepeller14affectParticleERK20QQuick3DParticleDataP27QQuick3DParticleDataCurrentf@@Qt_6_PRIVATE_API
libQt6Quick3DParticles.so.6:_ZN24QQuick3DParticleRepeller14setOuterRadiusEf@@Qt_6_PRIVATE_API
libQt6Quick3DParticles.so.6:_ZN24QQuick3DParticleRepeller15prepareToAffectEv@@Qt_6_PRIVATE_API
libQt6Quick3DParticles.so.6:_ZN24QQuick3DParticleRepeller15strengthChangedEv@@Qt_6_PRIVATE_API
libQt6Quick3DParticles.so.6:_ZN24QQuick3DParticleRepeller18outerRadiusChangedEv@@Qt_6_PRIVATE_API
libQt6Quick3DParticles.so.6:_ZN24QQuick3DParticleRepeller9setRadiusEf@@Qt_6_PRIVATE_API
libQt6Quick3DParticles.so.6:_ZN24QQuick3DParticleRepellerC1EP12QQuick3DNode@@Qt_6_PRIVATE_API
libQt6Quick3DParticles.so.6:_ZN24QQuick3DParticleRepellerC2EP12QQuick3DNode@@Qt_6_PRIVATE_API
libQt6Quick3DParticles.so.6:_ZN25QQuick3DParticleAttractor11qt_metacallEN11QMetaObject4CallEiPPv@@Qt_6_PRIVATE_API
libQt6Quick3DParticles.so.6:_ZN25QQuick3DParticleAttractor11qt_metacastEPKc@@Qt_6_PRIVATE_API
libQt6Quick3DParticles.so.6:_ZN25QQuick3DParticleAttractor11setDurationEi@@Qt_6_PRIVATE_API
libQt6Quick3DParticles.so.6:_ZN25QQuick3DParticleAttractor12setHideAtEndEb@@Qt_6_PRIVATE_API
libQt6Quick3DParticles.so.6:_ZN25QQuick3DParticleAttractor12shapeChangedEv@@Qt_6_PRIVATE_API
libQt6Quick3DParticles.so.6:_ZN25QQuick3DParticleAttractor14affectParticleERK20QQuick3DParticleDataP27QQuick3DParticleDataCurrentf@@Qt_6_PRIVATE_API
libQt6Quick3DParticles.so.6:_ZN25QQuick3DParticleAttractor15durationChangedEv@@Qt_6_PRIVATE_API
libQt6Quick3DParticles.so.6:_ZN25QQuick3DParticleAttractor15prepareToAffectEv@@Qt_6_PRIVATE_API
libQt6Quick3DParticles.so.6:_ZN25QQuick3DParticleAttractor16hideAtEndChangedEv@@Qt_6_PRIVATE_API
libQt6Quick3DParticles.so.6:_ZN25QQuick3DParticleAttractor18setPositionsAmountEi@@Qt_6_PRIVATE_API
libQt6Quick3DParticles.so.6:_ZN25QQuick3DParticleAttractor20setDurationVariationEi@@Qt_6_PRIVATE_API
libQt6Quick3DParticles.so.6:_ZN25QQuick3DParticleAttractor20setPositionVariationERK9QVector3D@@Qt_6_PRIVATE_API
libQt6Quick3DParticles.so.6:_ZN25QQuick3DParticleAttractor20updateShapePositionsEv@@Qt_6_PRIVATE_API
libQt6Quick3DParticles.so.6:_ZN25QQuick3DParticleAttractor21setUseCachedPositionsEb@@Qt_6_PRIVATE_API
libQt6Quick3DParticles.so.6:_ZN25QQuick3DParticleAttractor22positionsAmountChangedEv@@Qt_6_PRIVATE_API
libQt6Quick3DParticles.so.6:_ZN25QQuick3DParticleAttractor24durationVariationChangedEv@@Qt_6_PRIVATE_API
libQt6Quick3DParticles.so.6:_ZN25QQuick3DParticleAttractor24positionVariationChangedEv@@Qt_6_PRIVATE_API
libQt6Quick3DParticles.so.6:_ZN25QQuick3DParticleAttractor25useCachedPositionsChangedEv@@Qt_6_PRIVATE_API
libQt6Quick3DParticles.so.6:_ZN25QQuick3DParticleAttractor8setShapeEP29QQuick3DParticleAbstractShape@@Qt_6_PRIVATE_API
libQt6Quick3DParticles.so.6:_ZN25QQuick3DParticleAttractorC1EP12QQuick3DNode@@Qt_6_PRIVATE_API
libQt6Quick3DParticles.so.6:_ZN25QQuick3DParticleAttractorC2EP12QQuick3DNode@@Qt_6_PRIVATE_API
libQt6Quick3DParticles.so.6:_ZN25QQuick3DParticleDirection11qt_metacallEN11QMetaObject4CallEiPPv@@Qt_6_PRIVATE_API
libQt6Quick3DParticles.so.6:_ZN25QQuick3DParticleDirection11qt_metacastEPKc@@Qt_6_PRIVATE_API
libQt6Quick3DParticles.so.6:_ZN25QQuick3DParticleDirectionC1EP7QObject@@Qt_6_PRIVATE_API
libQt6Quick3DParticles.so.6:_ZN25QQuick3DParticleDirectionC2EP7QObject@@Qt_6_PRIVATE_API
libQt6Quick3DParticles.so.6:_ZN25QQuick3DParticleEmitBurst11qt_metacallEN11QMetaObject4CallEiPPv@@Qt_6_PRIVATE_API
libQt6Quick3DParticles.so.6:_ZN25QQuick3DParticleEmitBurst11qt_metacastEPKc@@Qt_6_PRIVATE_API
libQt6Quick3DParticles.so.6:_ZN25QQuick3DParticleEmitBurst11setDurationEi@@Qt_6_PRIVATE_API
libQt6Quick3DParticles.so.6:_ZN25QQuick3DParticleEmitBurst11timeChangedEv@@Qt_6_PRIVATE_API
libQt6Quick3DParticles.so.6:_ZN25QQuick3DParticleEmitBurst13amountChangedEv@@Qt_6_PRIVATE_API
libQt6Quick3DParticles.so.6:_ZN25QQuick3DParticleEmitBurst15durationChangedEv@@Qt_6_PRIVATE_API
libQt6Quick3DParticles.so.6:_ZN25QQuick3DParticleEmitBurst17componentCompleteEv@@Qt_6_PRIVATE_API
libQt6Quick3DParticles.so.6:_ZN25QQuick3DParticleEmitBurst7setTimeEi@@Qt_6_PRIVATE_API
libQt6Quick3DParticles.so.6:_ZN25QQuick3DParticleEmitBurst9setAmountEi@@Qt_6_PRIVATE_API
libQt6Quick3DParticles.so.6:_ZN25QQuick3DParticleEmitBurstC1EP7QObject@@Qt_6_PRIVATE_API
libQt6Quick3DParticles.so.6:_ZN25QQuick3DParticleEmitBurstC2EP7QObject@@Qt_6_PRIVATE_API
libQt6Quick3DParticles.so.6:_ZN25QQuick3DParticleEmitBurstD0Ev@@Qt_6_PRIVATE_API
libQt6Quick3DParticles.so.6:_ZN25QQuick3DParticleEmitBurstD1Ev@@Qt_6_PRIVATE_API
libQt6Quick3DParticles.so.6:_ZN25QQuick3DParticleEmitBurstD2Ev@@Qt_6_PRIVATE_API
libQt6Quick3DParticles.so.6:_ZN26QQuick3DParticleModelShape11createModelEv@@Qt_6_PRIVATE_API
libQt6Quick3DParticles.so.6:_ZN26QQuick3DParticleModelShape11fillChangedEv@@Qt_6_PRIVATE_API
libQt6Quick3DParticles.so.6:_ZN26QQuick3DParticleModelShape11getPositionEi@@Qt_6_PRIVATE_API
libQt6Quick3DParticles.so.6:_ZN26QQuick3DParticleModelShape11qt_metacallEN11QMetaObject4CallEiPPv@@Qt_6_PRIVATE_API
libQt6Quick3DParticles.so.6:_ZN26QQuick3DParticleModelShape11qt_metacastEPKc@@Qt_6_PRIVATE_API
libQt6Quick3DParticles.so.6:_ZN26QQuick3DParticleModelShape11setDelegateEP13QQmlComponent@@Qt_6_PRIVATE_API
libQt6Quick3DParticles.so.6:_ZN26QQuick3DParticleModelShape15delegateChangedEv@@Qt_6_PRIVATE_API
libQt6Quick3DParticles.so.6:_ZN26QQuick3DParticleModelShape19randomPositionModelEi@@Qt_6_PRIVATE_API
libQt6Quick3DParticles.so.6:_ZN26QQuick3DParticleModelShape25clearModelVertexPositionsEv@@Qt_6_PRIVATE_API
libQt6Quick3DParticles.so.6:_ZN26QQuick3DParticleModelShape29calculateModelVertexPositionsEv@@Qt_6_PRIVATE_API
libQt6Quick3DParticles.so.6:_ZN26QQuick3DParticleModelShape7setFillEb@@Qt_6_PRIVATE_API
libQt6Quick3DParticles.so.6:_ZN26QQuick3DParticleModelShapeC1EP7QObject@@Qt_6_PRIVATE_API
libQt6Quick3DParticles.so.6:_ZN26QQuick3DParticleModelShapeC2EP7QObject@@Qt_6_PRIVATE_API
libQt6Quick3DParticles.so.6:_ZN26QQuick3DParticleModelShapeD0Ev@@Qt_6_PRIVATE_API
libQt6Quick3DParticles.so.6:_ZN26QQuick3DParticleModelShapeD1Ev@@Qt_6_PRIVATE_API
libQt6Quick3DParticles.so.6:_ZN26QQuick3DParticleModelShapeD2Ev@@Qt_6_PRIVATE_API
libQt6Quick3DParticles.so.6:_ZN27QQuick3DParticleCustomShape11getPositionEi@@Qt_6_PRIVATE_API
libQt6Quick3DParticles.so.6:_ZN27QQuick3DParticleCustomShape11qt_metacallEN11QMetaObject4CallEiPPv@@Qt_6_PRIVATE_API
libQt6Quick3DParticles.so.6:_ZN27QQuick3DParticleCustomShape11qt_metacastEPKc@@Qt_6_PRIVATE_API
libQt6Quick3DParticles.so.6:_ZN27QQuick3DParticleCustomShape13sourceChangedEv@@Qt_6_PRIVATE_API
libQt6Quick3DParticles.so.6:_ZN27QQuick3DParticleCustomShape14loadFromSourceEv@@Qt_6_PRIVATE_API
libQt6Quick3DParticles.so.6:_ZN27QQuick3DParticleCustomShape15doRandomizeDataEv@@Qt_6_PRIVATE_API
libQt6Quick3DParticles.so.6:_ZN27QQuick3DParticleCustomShape16setRandomizeDataEb@@Qt_6_PRIVATE_API
libQt6Quick3DParticles.so.6:_ZN27QQuick3DParticleCustomShape20randomizeDataChangedEv@@Qt_6_PRIVATE_API
libQt6Quick3DParticles.so.6:_ZN27QQuick3DParticleCustomShape9setSourceERK4QUrl@@Qt_6_PRIVATE_API
libQt6Quick3DParticles.so.6:_ZN27QQuick3DParticleCustomShapeC1EP7QObject@@Qt_6_PRIVATE_API
libQt6Quick3DParticles.so.6:_ZN27QQuick3DParticleCustomShapeC2EP7QObject@@Qt_6_PRIVATE_API
libQt6Quick3DParticles.so.6:_ZN28QQuick3DParticleDynamicBurst10setEnabledEb@@Qt_6_PRIVATE_API
libQt6Quick3DParticles.so.6:_ZN28QQuick3DParticleDynamicBurst11qt_metacallEN11QMetaObject4CallEiPPv@@Qt_6_PRIVATE_API
libQt6Quick3DParticles.so.6:_ZN28QQuick3DParticleDynamicBurst11qt_metacastEPKc@@Qt_6_PRIVATE_API
libQt6Quick3DParticles.so.6:_ZN28QQuick3DParticleDynamicBurst14enabledChangedEv@@Qt_6_PRIVATE_API
libQt6Quick3DParticles.so.6:_ZN28QQuick3DParticleDynamicBurst14setTriggerModeENS_11TriggerModeE@@Qt_6_PRIVATE_API
libQt6Quick3DParticles.so.6:_ZN28QQuick3DParticleDynamicBurst18setAmountVariationEi@@Qt_6_PRIVATE_API
libQt6Quick3DParticles.so.6:_ZN28QQuick3DParticleDynamicBurst18triggerModeChangedEv@@Qt_6_PRIVATE_API
libQt6Quick3DParticles.so.6:_ZN28QQuick3DParticleDynamicBurst22amountVariationChangedEv@@Qt_6_PRIVATE_API
libQt6Quick3DParticles.so.6:_ZN28QQuick3DParticleDynamicBurstC1EP7QObject@@Qt_6_PRIVATE_API
libQt6Quick3DParticles.so.6:_ZN28QQuick3DParticleDynamicBurstC2EP7QObject@@Qt_6_PRIVATE_API
libQt6Quick3DParticles.so.6:_ZN28QQuick3DParticleLineParticle11qt_metacallEN11QMetaObject4CallEiPPv@@Qt_6_PRIVATE_API
libQt6Quick3DParticles.so.6:_ZN28QQuick3DParticleLineParticle11qt_metacastEPKc@@Qt_6_PRIVATE_API
libQt6Quick3DParticles.so.6:_ZN28QQuick3DParticleLineParticle12clearSegmentEi@@Qt_6_PRIVATE_API
libQt6Quick3DParticles.so.6:_ZN28QQuick3DParticleLineParticle12setAlphaFadeEf@@Qt_6_PRIVATE_API
libQt6Quick3DParticles.so.6:_ZN28QQuick3DParticleLineParticle13lengthChangedEv@@Qt_6_PRIVATE_API
libQt6Quick3DParticles.so.6:_ZN28QQuick3DParticleLineParticle14updateLineNodeEP21QSSGRenderGraphObject@@Qt_6_PRIVATE_API
libQt6Quick3DParticles.so.6:_ZN28QQuick3DParticleLineParticle15commitParticlesEf@@Qt_6_PRIVATE_API
libQt6Quick3DParticles.so.6:_ZN28QQuick3DParticleLineParticle15saveLineSegmentEif@@Qt_6_PRIVATE_API
libQt6Quick3DParticles.so.6:_ZN28QQuick3DParticleLineParticle15setParticleDataEiRK9QVector3DS2_RK9QVector4Dfff@@Qt_6_PRIVATE_API
libQt6Quick3DParticles.so.6:_ZN28QQuick3DParticleLineParticle15setSegmentCountEi@@Qt_6_PRIVATE_API
libQt6Quick3DParticles.so.6:_ZN28QQuick3DParticleLineParticle15setTexcoordModeENS_12TexcoordModeE@@Qt_6_PRIVATE_API
libQt6Quick3DParticles.so.6:_ZN28QQuick3DParticleLineParticle16alphaFadeChangedEv@@Qt_6_PRIVATE_API
libQt6Quick3DParticles.so.6:_ZN28QQuick3DParticleLineParticle16nextCurrentIndexEPK23QQuick3DParticleEmitter@@Qt_6_PRIVATE_API
libQt6Quick3DParticles.so.6:_ZN28QQuick3DParticleLineParticle16updateLineBufferEPNS_22LineParticleUpdateNodeEP21QSSGRenderGraphObject@@Qt_6_PRIVATE_API
libQt6Quick3DParticles.so.6:_ZN28QQuick3DParticleLineParticle17resetParticleDataEi@@Qt_6_PRIVATE_API
libQt6Quick3DParticles.so.6:_ZN28QQuick3DParticleLineParticle17setLengthDeltaMinEf@@Qt_6_PRIVATE_API
libQt6Quick3DParticles.so.6:_ZN28QQuick3DParticleLineParticle17updateLineSegmentEi@@Qt_6_PRIVATE_API
libQt6Quick3DParticles.so.6:_ZN28QQuick3DParticleLineParticle18setLengthVariationEf@@Qt_6_PRIVATE_API
libQt6Quick3DParticles.so.6:_ZN28QQuick3DParticleLineParticle18setScaleMultiplierEf@@Qt_6_PRIVATE_API
libQt6Quick3DParticles.so.6:_ZN28QQuick3DParticleLineParticle19handleSystemChangedEP22QQuick3DParticleSystem@@Qt_6_PRIVATE_API
libQt6Quick3DParticles.so.6:_ZN28QQuick3DParticleLineParticle19segmentCountChangedEv@@Qt_6_PRIVATE_API
libQt6Quick3DParticles.so.6:_ZN28QQuick3DParticleLineParticle19texcoordModeChangedEv@@Qt_6_PRIVATE_API
libQt6Quick3DParticles.so.6:_ZN28QQuick3DParticleLineParticle21lengthDeltaMinChangedEv@@Qt_6_PRIVATE_API
libQt6Quick3DParticles.so.6:_ZN28QQuick3DParticleLineParticle21setEolFadeOutDurationEi@@Qt_6_PRIVATE_API
libQt6Quick3DParticles.so.6:_ZN28QQuick3DParticleLineParticle21setTexcoordMultiplierEf@@Qt_6_PRIVATE_API
libQt6Quick3DParticles.so.6:_ZN28QQuick3DParticleLineParticle22LineParticleUpdateNode17updateSpatialNodeEP21QSSGRenderGraphObject@@Qt_6_PRIVATE_API
libQt6Quick3DParticles.so.6:_ZN28QQuick3DParticleLineParticle22handleMaxAmountChangedEi@@Qt_6_PRIVATE_API
libQt6Quick3DParticles.so.6:_ZN28QQuick3DParticleLineParticle22lengthVariationChangedEv@@Qt_6_PRIVATE_API
libQt6Quick3DParticles.so.6:_ZN28QQuick3DParticleLineParticle22scaleMultiplierChangedEv@@Qt_6_PRIVATE_API
libQt6Quick3DParticles.so.6:_ZN28QQuick3DParticleLineParticle25eolFadeOutDurationChangedEv@@Qt_6_PRIVATE_API
libQt6Quick3DParticles.so.6:_ZN28QQuick3DParticleLineParticle25handleSegmentCountChangedEv@@Qt_6_PRIVATE_API
libQt6Quick3DParticles.so.6:_ZN28QQuick3DParticleLineParticle25texcoordMultiplierChangedEv@@Qt_6_PRIVATE_API
libQt6Quick3DParticles.so.6:_ZN28QQuick3DParticleLineParticle5resetEv@@Qt_6_PRIVATE_API
libQt6Quick3DParticles.so.6:_ZN28QQuick3DParticleLineParticle9setLengthEf@@Qt_6_PRIVATE_API
libQt6Quick3DParticles.so.6:_ZN28QQuick3DParticleLineParticleC1EP12QQuick3DNode@@Qt_6_PRIVATE_API
libQt6Quick3DParticles.so.6:_ZN28QQuick3DParticleLineParticleC2EP12QQuick3DNode@@Qt_6_PRIVATE_API
libQt6Quick3DParticles.so.6:_ZN28QQuick3DParticleLineParticleD0Ev@@Qt_6_PRIVATE_API
libQt6Quick3DParticles.so.6:_ZN28QQuick3DParticleLineParticleD1Ev@@Qt_6_PRIVATE_API
libQt6Quick3DParticles.so.6:_ZN28QQuick3DParticleLineParticleD2Ev@@Qt_6_PRIVATE_API
libQt6Quick3DParticles.so.6:_ZN28QQuick3DParticlePointRotator11qt_metacallEN11QMetaObject4CallEiPPv@@Qt_6_PRIVATE_API
libQt6Quick3DParticles.so.6:_ZN28QQuick3DParticlePointRotator11qt_metacastEPKc@@Qt_6_PRIVATE_API
libQt6Quick3DParticles.so.6:_ZN28QQuick3DParticlePointRotator12setDirectionERK9QVector3D@@Qt_6_PRIVATE_API
libQt6Quick3DParticles.so.6:_ZN28QQuick3DParticlePointRotator12setMagnitudeEf@@Qt_6_PRIVATE_API
libQt6Quick3DParticles.so.6:_ZN28QQuick3DParticlePointRotator13setPivotPointERK9QVector3D@@Qt_6_PRIVATE_API
libQt6Quick3DParticles.so.6:_ZN28QQuick3DParticlePointRotator14affectParticleERK20QQuick3DParticleDataP27QQuick3DParticleDataCurrentf@@Qt_6_PRIVATE_API
libQt6Quick3DParticles.so.6:_ZN28QQuick3DParticlePointRotator15prepareToAffectEv@@Qt_6_PRIVATE_API
libQt6Quick3DParticles.so.6:_ZN28QQuick3DParticlePointRotator16directionChangedEv@@Qt_6_PRIVATE_API
libQt6Quick3DParticles.so.6:_ZN28QQuick3DParticlePointRotator16magnitudeChangedEv@@Qt_6_PRIVATE_API
libQt6Quick3DParticles.so.6:_ZN28QQuick3DParticlePointRotator17pivotPointChangedEv@@Qt_6_PRIVATE_API
libQt6Quick3DParticles.so.6:_ZN28QQuick3DParticlePointRotatorC1EP12QQuick3DNode@@Qt_6_PRIVATE_API
libQt6Quick3DParticles.so.6:_ZN28QQuick3DParticlePointRotatorC2EP12QQuick3DNode@@Qt_6_PRIVATE_API
libQt6Quick3DParticles.so.6:_ZN28QQuick3DParticleTrailEmitter11clearBurstsEv@@Qt_6_PRIVATE_API
libQt6Quick3DParticles.so.6:_ZN28QQuick3DParticleTrailEmitter11qt_metacallEN11QMetaObject4CallEiPPv@@Qt_6_PRIVATE_API
libQt6Quick3DParticles.so.6:_ZN28QQuick3DParticleTrailEmitter11qt_metacastEPKc@@Qt_6_PRIVATE_API
libQt6Quick3DParticles.so.6:_ZN28QQuick3DParticleTrailEmitter13followChangedEv@@Qt_6_PRIVATE_API
libQt6Quick3DParticles.so.6:_ZN28QQuick3DParticleTrailEmitter18emitTrailParticlesERK9QVector3Dii@@Qt_6_PRIVATE_API
libQt6Quick3DParticles.so.6:_ZN28QQuick3DParticleTrailEmitter5burstEi@@Qt_6_PRIVATE_API
libQt6Quick3DParticles.so.6:_ZN28QQuick3DParticleTrailEmitter9setFollowEP16QQuick3DParticle@@Qt_6_PRIVATE_API
libQt6Quick3DParticles.so.6:_ZN28QQuick3DParticleTrailEmitterC1EP12QQuick3DNode@@Qt_6_PRIVATE_API
libQt6Quick3DParticles.so.6:_ZN28QQuick3DParticleTrailEmitterC2EP12QQuick3DNode@@Qt_6_PRIVATE_API
libQt6Quick3DParticles.so.6:_ZN29QQuick3DParticleAbstractShape10parentNodeEv@@Qt_6_PRIVATE_API
libQt6Quick3DParticles.so.6:_ZN29QQuick3DParticleAbstractShape11qt_metacallEN11QMetaObject4CallEiPPv@@Qt_6_PRIVATE_API
libQt6Quick3DParticles.so.6:_ZN29QQuick3DParticleAbstractShape11qt_metacastEPKc@@Qt_6_PRIVATE_API
libQt6Quick3DParticles.so.6:_ZN29QQuick3DParticleAbstractShape17componentCompleteEv@@Qt_6_PRIVATE_API
libQt6Quick3DParticles.so.6:_ZN29QQuick3DParticleAbstractShapeC1EP7QObject@@Qt_6_PRIVATE_API
libQt6Quick3DParticles.so.6:_ZN29QQuick3DParticleAbstractShapeC2EP7QObject@@Qt_6_PRIVATE_API
libQt6Quick3DParticles.so.6:_ZN29QQuick3DParticleModelParticle10itemChangeEN14QQuick3DObject10ItemChangeERKNS0_14ItemChangeDataE@@Qt_6_PRIVATE_API
libQt6Quick3DParticles.so.6:_ZN29QQuick3DParticleModelParticle10regenerateEv@@Qt_6_PRIVATE_API
libQt6Quick3DParticles.so.6:_ZN29QQuick3DParticleModelParticle11addInstanceERK9QVector3DS2_S2_RK6QColorf@@Qt_6_PRIVATE_API
libQt6Quick3DParticles.so.6:_ZN29QQuick3DParticleModelParticle11qt_metacallEN11QMetaObject4CallEiPPv@@Qt_6_PRIVATE_API
libQt6Quick3DParticles.so.6:_ZN29QQuick3DParticleModelParticle11qt_metacastEPKc@@Qt_6_PRIVATE_API
libQt6Quick3DParticles.so.6:_ZN29QQuick3DParticleModelParticle11setDelegateEP13QQmlComponent@@Qt_6_PRIVATE_API
libQt6Quick3DParticles.so.6:_ZN29QQuick3DParticleModelParticle14commitInstanceEv@@Qt_6_PRIVATE_API
libQt6Quick3DParticles.so.6:_ZN29QQuick3DParticleModelParticle15delegateChangedEv@@Qt_6_PRIVATE_API
libQt6Quick3DParticles.so.6:_ZN29QQuick3DParticleModelParticle15updateDepthBiasEf@@Qt_6_PRIVATE_API
libQt6Quick3DParticles.so.6:_ZN29QQuick3DParticleModelParticle17componentCompleteEv@@Qt_6_PRIVATE_API
libQt6Quick3DParticles.so.6:_ZN29QQuick3DParticleModelParticle18clearInstanceTableEv@@Qt_6_PRIVATE_API
libQt6Quick3DParticles.so.6:_ZN29QQuick3DParticleModelParticle20instanceTableChangedEv@@Qt_6_PRIVATE_API
libQt6Quick3DParticles.so.6:_ZN29QQuick3DParticleModelParticle21handleSortModeChangedEN16QQuick3DParticle8SortModeE@@Qt_6_PRIVATE_API
libQt6Quick3DParticles.so.6:_ZN29QQuick3DParticleModelParticle22handleMaxAmountChangedEi@@Qt_6_PRIVATE_API
libQt6Quick3DParticles.so.6:_ZN29QQuick3DParticleModelParticleC1EP12QQuick3DNode@@Qt_6_PRIVATE_API
libQt6Quick3DParticles.so.6:_ZN29QQuick3DParticleModelParticleC2EP12QQuick3DNode@@Qt_6_PRIVATE_API
libQt6Quick3DParticles.so.6:_ZN29QQuick3DParticleScaleAffector10setMaxSizeEf@@Qt_6_PRIVATE_API
libQt6Quick3DParticles.so.6:_ZN29QQuick3DParticleScaleAffector10setMinSizeEf@@Qt_6_PRIVATE_API
libQt6Quick3DParticles.so.6:_ZN29QQuick3DParticleScaleAffector11qt_metacallEN11QMetaObject4CallEiPPv@@Qt_6_PRIVATE_API
libQt6Quick3DParticles.so.6:_ZN29QQuick3DParticleScaleAffector11qt_metacastEPKc@@Qt_6_PRIVATE_API
libQt6Quick3DParticles.so.6:_ZN29QQuick3DParticleScaleAffector11setDurationEi@@Qt_6_PRIVATE_API
libQt6Quick3DParticles.so.6:_ZN29QQuick3DParticleScaleAffector11typeChangedEv@@Qt_6_PRIVATE_API
libQt6Quick3DParticles.so.6:_ZN29QQuick3DParticleScaleAffector14affectParticleERK20QQuick3DParticleDataP27QQuick3DParticleDataCurrentf@@Qt_6_PRIVATE_API
libQt6Quick3DParticles.so.6:_ZN29QQuick3DParticleScaleAffector14maxSizeChangedEv@@Qt_6_PRIVATE_API
libQt6Quick3DParticles.so.6:_ZN29QQuick3DParticleScaleAffector14minSizeChangedEv@@Qt_6_PRIVATE_API
libQt6Quick3DParticles.so.6:_ZN29QQuick3DParticleScaleAffector14setEasingCurveERK12QEasingCurve@@Qt_6_PRIVATE_API
libQt6Quick3DParticles.so.6:_ZN29QQuick3DParticleScaleAffector15durationChangedEv@@Qt_6_PRIVATE_API
libQt6Quick3DParticles.so.6:_ZN29QQuick3DParticleScaleAffector15prepareToAffectEv@@Qt_6_PRIVATE_API
libQt6Quick3DParticles.so.6:_ZN29QQuick3DParticleScaleAffector18easingCurveChangedEv@@Qt_6_PRIVATE_API
libQt6Quick3DParticles.so.6:_ZN29QQuick3DParticleScaleAffector7setTypeENS_11ScalingTypeE@@Qt_6_PRIVATE_API
libQt6Quick3DParticles.so.6:_ZN29QQuick3DParticleScaleAffectorC1EP12QQuick3DNode@@Qt_6_PRIVATE_API
libQt6Quick3DParticles.so.6:_ZN29QQuick3DParticleScaleAffectorC2EP12QQuick3DNode@@Qt_6_PRIVATE_API
libQt6Quick3DParticles.so.6:_ZN29QQuick3DParticleSystemLogging11qt_metacallEN11QMetaObject4CallEiPPv@@Qt_6_PRIVATE_API
libQt6Quick3DParticles.so.6:_ZN29QQuick3DParticleSystemLogging11qt_metacastEPKc@@Qt_6_PRIVATE_API
libQt6Quick3DParticles.so.6:_ZN29QQuick3DParticleSystemLogging11timeChangedEv@@Qt_6_PRIVATE_API
libQt6Quick3DParticles.so.6:_ZN29QQuick3DParticleSystemLogging11updateTimesEx@@Qt_6_PRIVATE_API
libQt6Quick3DParticles.so.6:_ZN29QQuick3DParticleSystemLogging14updatesChangedEv@@Qt_6_PRIVATE_API
libQt6Quick3DParticles.so.6:_ZN29QQuick3DParticleSystemLogging18setLoggingIntervalEi@@Qt_6_PRIVATE_API
libQt6Quick3DParticles.so.6:_ZN29QQuick3DParticleSystemLogging18timeAverageChangedEv@@Qt_6_PRIVATE_API
libQt6Quick3DParticles.so.6:_ZN29QQuick3DParticleSystemLogging19particlesMaxChangedEv@@Qt_6_PRIVATE_API
libQt6Quick3DParticles.so.6:_ZN29QQuick3DParticleSystemLogging20particlesUsedChangedEv@@Qt_6_PRIVATE_API
libQt6Quick3DParticles.so.6:_ZN29QQuick3DParticleSystemLogging20timeDeviationChangedEv@@Qt_6_PRIVATE_API
libQt6Quick3DParticles.so.6:_ZN29QQuick3DParticleSystemLogging22loggingIntervalChangedEv@@Qt_6_PRIVATE_API
libQt6Quick3DParticles.so.6:_ZN29QQuick3DParticleSystemLogging9resetDataEv@@Qt_6_PRIVATE_API
libQt6Quick3DParticles.so.6:_ZN29QQuick3DParticleSystemLoggingC1EP7QObject@@Qt_6_PRIVATE_API
libQt6Quick3DParticles.so.6:_ZN29QQuick3DParticleSystemLoggingC2EP7QObject@@Qt_6_PRIVATE_API
libQt6Quick3DParticles.so.6:_ZN30QQuick3DParticleShapeDataUtils10readStringER17QCborStreamReader@@Qt_6_PRIVATE_API
libQt6Quick3DParticles.so.6:_ZN30QQuick3DParticleShapeDataUtils10writeValueER17QCborStreamWriterRK8QVariant@@Qt_6_PRIVATE_API
libQt6Quick3DParticles.so.6:_ZN30QQuick3DParticleShapeDataUtils15readShapeHeaderER17QCborStreamReader@@Qt_6_PRIVATE_API
libQt6Quick3DParticles.so.6:_ZN30QQuick3DParticleShapeDataUtils16writeShapeHeaderER17QCborStreamWriteri@@Qt_6_PRIVATE_API
libQt6Quick3DParticles.so.6:_ZN30QQuick3DParticleShapeDataUtils8readRealER17QCborStreamReader@@Qt_6_PRIVATE_API
libQt6Quick3DParticles.so.6:_ZN30QQuick3DParticleShapeDataUtils9readValueER17QCborStreamReaderN9QMetaType4TypeE@@Qt_6_PRIVATE_API
libQt6Quick3DParticles.so.6:_ZN30QQuick3DParticleSpriteParticle10itemChangeEN14QQuick3DObject10ItemChangeERKNS0_14ItemChangeDataE@@Qt_6_PRIVATE_API
libQt6Quick3DParticles.so.6:_ZN30QQuick3DParticleSpriteParticle10qmlLightAtEP16QQmlListPropertyI21QQuick3DAbstractLightEx@@Qt_6_PRIVATE_API
libQt6Quick3DParticles.so.6:_ZN30QQuick3DParticleSpriteParticle10setOffsetXEf@@Qt_6_PRIVATE_API
libQt6Quick3DParticles.so.6:_ZN30QQuick3DParticleSpriteParticle10setOffsetYEf@@Qt_6_PRIVATE_API
libQt6Quick3DParticles.so.6:_ZN30QQuick3DParticleSpriteParticle11deleteNodesEv@@Qt_6_PRIVATE_API
libQt6Quick3DParticles.so.6:_ZN30QQuick3DParticleSpriteParticle11qt_metacallEN11QMetaObject4CallEiPPv@@Qt_6_PRIVATE_API
libQt6Quick3DParticles.so.6:_ZN30QQuick3DParticleSpriteParticle11qt_metacastEPKc@@Qt_6_PRIVATE_API
libQt6Quick3DParticles.so.6:_ZN30QQuick3DParticleSpriteParticle11updateNodesEv@@Qt_6_PRIVATE_API
libQt6Quick3DParticles.so.6:_ZN30QQuick3DParticleSpriteParticle12setBillboardEb@@Qt_6_PRIVATE_API
libQt6Quick3DParticles.so.6:_ZN30QQuick3DParticleSpriteParticle12setBlendModeENS_9BlendModeE@@Qt_6_PRIVATE_API
libQt6Quick3DParticles.so.6:_ZN30QQuick3DParticleSpriteParticle13lightsChangedEv@@Qt_6_PRIVATE_API
libQt6Quick3DParticles.so.6:_ZN30QQuick3DParticleSpriteParticle13setColorTableEP15QQuick3DTexture@@Qt_6_PRIVATE_API
libQt6Quick3DParticles.so.6:_ZN30QQuick3DParticleSpriteParticle13spriteChangedEv@@Qt_6_PRIVATE_API
libQt6Quick3DParticles.so.6:_ZN30QQuick3DParticleSpriteParticle14markNodesDirtyEv@@Qt_6_PRIVATE_API
libQt6Quick3DParticles.so.6:_ZN30QQuick3DParticleSpriteParticle14offsetXChangedEv@@Qt_6_PRIVATE_API
libQt6Quick3DParticles.so.6:_ZN30QQuick3DParticleSpriteParticle14offsetYChangedEv@@Qt_6_PRIVATE_API
libQt6Quick3DParticles.so.6:_ZN30QQuick3DParticleSpriteParticle14perEmitterDataEPK12QQuick3DNode@@Qt_6_PRIVATE_API
libQt6Quick3DParticles.so.6:_ZN30QQuick3DParticleSpriteParticle14perEmitterDataEi@@Qt_6_PRIVATE_API
libQt6Quick3DParticles.so.6:_ZN30QQuick3DParticleSpriteParticle14qmlAppendLightEP16QQmlListPropertyI21QQuick3DAbstractLightEPS1_@@Qt_6_PRIVATE_API
libQt6Quick3DParticles.so.6:_ZN30QQuick3DParticleSpriteParticle14qmlClearLightsEP16QQmlListPropertyI21QQuick3DAbstractLightE@@Qt_6_PRIVATE_API
libQt6Quick3DParticles.so.6:_ZN30QQuick3DParticleSpriteParticle14qmlLightsCountEP16QQmlListPropertyI21QQuick3DAbstractLightE@@Qt_6_PRIVATE_API
libQt6Quick3DParticles.so.6:_ZN30QQuick3DParticleSpriteParticle15commitParticlesEf@@Qt_6_PRIVATE_API
libQt6Quick3DParticles.so.6:_ZN30QQuick3DParticleSpriteParticle15mapFeatureLevelENS_12FeatureLevelE@@Qt_6_PRIVATE_API
libQt6Quick3DParticles.so.6:_ZN30QQuick3DParticleSpriteParticle15setParticleDataEiRK9QVector3DS2_RK9QVector4Dfff@@Qt_6_PRIVATE_API
libQt6Quick3DParticles.so.6:_ZN30QQuick3DParticleSpriteParticle16billboardChangedEv@@Qt_6_PRIVATE_API
libQt6Quick3DParticles.so.6:_ZN30QQuick3DParticleSpriteParticle16blendModeChangedEv@@Qt_6_PRIVATE_API
libQt6Quick3DParticles.so.6:_ZN30QQuick3DParticleSpriteParticle16nextCurrentIndexEPK23QQuick3DParticleEmitter@@Qt_6_PRIVATE_API
libQt6Quick3DParticles.so.6:_ZN30QQuick3DParticleSpriteParticle16onLightDestroyedEP7QObject@@Qt_6_PRIVATE_API
libQt6Quick3DParticles.so.6:_ZN30QQuick3DParticleSpriteParticle16setParticleScaleEf@@Qt_6_PRIVATE_API
libQt6Quick3DParticles.so.6:_ZN30QQuick3DParticleSpriteParticle17colorTableChangedEv@@Qt_6_PRIVATE_API
libQt6Quick3DParticles.so.6:_ZN30QQuick3DParticleSpriteParticle17componentCompleteEv@@Qt_6_PRIVATE_API
libQt6Quick3DParticles.so.6:_ZN30QQuick3DParticleSpriteParticle17resetParticleDataEi@@Qt_6_PRIVATE_API
libQt6Quick3DParticles.so.6:_ZN30QQuick3DParticleSpriteParticle17setSpriteSequenceEP30QQuick3DParticleSpriteSequence@@Qt_6_PRIVATE_API
libQt6Quick3DParticles.so.6:_ZN30QQuick3DParticleSpriteParticle18ParticleUpdateNode17updateSpatialNodeEP21QSSGRenderGraphObject@@Qt_6_PRIVATE_API
libQt6Quick3DParticles.so.6:_ZN30QQuick3DParticleSpriteParticle18updateFeatureLevelEv@@Qt_6_PRIVATE_API
libQt6Quick3DParticles.so.6:_ZN30QQuick3DParticleSpriteParticle18updateParticleNodeEPKNS_18ParticleUpdateNodeEP21QSSGRenderGraphObject@@Qt_6_PRIVATE_API
libQt6Quick3DParticles.so.6:_ZN30QQuick3DParticleSpriteParticle18updateSceneManagerEP20QQuick3DSceneManager@@Qt_6_PRIVATE_API
libQt6Quick3DParticles.so.6:_ZN30QQuick3DParticleSpriteParticle19handleSystemChangedEP22QQuick3DParticleSystem@@Qt_6_PRIVATE_API
libQt6Quick3DParticles.so.6:_ZN30QQuick3DParticleSpriteParticle19setCastsReflectionsEb@@Qt_6_PRIVATE_API
libQt6Quick3DParticles.so.6:_ZN30QQuick3DParticleSpriteParticle20particleScaleChangedEv@@Qt_6_PRIVATE_API
libQt6Quick3DParticles.so.6:_ZN30QQuick3DParticleSpriteParticle20updateParticleBufferEPNS_18ParticleUpdateNodeEP21QSSGRenderGraphObject@@Qt_6_PRIVATE_API
libQt6Quick3DParticles.so.6:_ZN30QQuick3DParticleSpriteParticle21spriteSequenceChangedEv@@Qt_6_PRIVATE_API
libQt6Quick3DParticles.so.6:_ZN30QQuick3DParticleSpriteParticle22handleMaxAmountChangedEi@@Qt_6_PRIVATE_API
libQt6Quick3DParticles.so.6:_ZN30QQuick3DParticleSpriteParticle23castsReflectionsChangedEv@@Qt_6_PRIVATE_API
libQt6Quick3DParticles.so.6:_ZN30QQuick3DParticleSpriteParticle28updateAnimatedParticleBufferEPNS_18ParticleUpdateNodeEP21QSSGRenderGraphObject@@Qt_6_PRIVATE_API
libQt6Quick3DParticles.so.6:_ZN30QQuick3DParticleSpriteParticle5resetEv@@Qt_6_PRIVATE_API
libQt6Quick3DParticles.so.6:_ZN30QQuick3DParticleSpriteParticle6lightsEv@@Qt_6_PRIVATE_API
libQt6Quick3DParticles.so.6:_ZN30QQuick3DParticleSpriteParticle9setSpriteEP15QQuick3DTexture@@Qt_6_PRIVATE_API
libQt6Quick3DParticles.so.6:_ZN30QQuick3DParticleSpriteParticleC1EP12QQuick3DNode@@Qt_6_PRIVATE_API
libQt6Quick3DParticles.so.6:_ZN30QQuick3DParticleSpriteParticleC2EP12QQuick3DNode@@Qt_6_PRIVATE_API
libQt6Quick3DParticles.so.6:_ZN30QQuick3DParticleSpriteParticleD0Ev@@Qt_6_PRIVATE_API
libQt6Quick3DParticles.so.6:_ZN30QQuick3DParticleSpriteParticleD1Ev@@Qt_6_PRIVATE_API
libQt6Quick3DParticles.so.6:_ZN30QQuick3DParticleSpriteParticleD2Ev@@Qt_6_PRIVATE_API
libQt6Quick3DParticles.so.6:_ZN30QQuick3DParticleSpriteSequence10firstFrameEib@@Qt_6_PRIVATE_API
libQt6Quick3DParticles.so.6:_ZN30QQuick3DParticleSpriteSequence11qt_metacallEN11QMetaObject4CallEiPPv@@Qt_6_PRIVATE_API
libQt6Quick3DParticles.so.6:_ZN30QQuick3DParticleSpriteSequence11qt_metacastEPKc@@Qt_6_PRIVATE_API
libQt6Quick3DParticles.so.6:_ZN30QQuick3DParticleSpriteSequence11setDurationEi@@Qt_6_PRIVATE_API
libQt6Quick3DParticles.so.6:_ZN30QQuick3DParticleSpriteSequence13setFrameCountEi@@Qt_6_PRIVATE_API
libQt6Quick3DParticles.so.6:_ZN30QQuick3DParticleSpriteSequence13setFrameIndexEi@@Qt_6_PRIVATE_API
libQt6Quick3DParticles.so.6:_ZN30QQuick3DParticleSpriteSequence14markNodesDirtyEv@@Qt_6_PRIVATE_API
libQt6Quick3DParticles.so.6:_ZN30QQuick3DParticleSpriteSequence14setInterpolateEb@@Qt_6_PRIVATE_API
libQt6Quick3DParticles.so.6:_ZN30QQuick3DParticleSpriteSequence14setRandomStartEb@@Qt_6_PRIVATE_API
libQt6Quick3DParticles.so.6:_ZN30QQuick3DParticleSpriteSequence15durationChangedEv@@Qt_6_PRIVATE_API
libQt6Quick3DParticles.so.6:_ZN30QQuick3DParticleSpriteSequence17componentCompleteEv@@Qt_6_PRIVATE_API
libQt6Quick3DParticles.so.6:_ZN30QQuick3DParticleSpriteSequence17frameCountChangedEv@@Qt_6_PRIVATE_API
libQt6Quick3DParticles.so.6:_ZN30QQuick3DParticleSpriteSequence17frameIndexChangedEv@@Qt_6_PRIVATE_API
libQt6Quick3DParticles.so.6:_ZN30QQuick3DParticleSpriteSequence18interpolateChangedEv@@Qt_6_PRIVATE_API
libQt6Quick3DParticles.so.6:_ZN30QQuick3DParticleSpriteSequence18randomStartChangedEv@@Qt_6_PRIVATE_API
libQt6Quick3DParticles.so.6:_ZN30QQuick3DParticleSpriteSequence20setDurationVariationEi@@Qt_6_PRIVATE_API
libQt6Quick3DParticles.so.6:_ZN30QQuick3DParticleSpriteSequence21setAnimationDirectionENS_18AnimationDirectionE@@Qt_6_PRIVATE_API
libQt6Quick3DParticles.so.6:_ZN30QQuick3DParticleSpriteSequence24durationVariationChangedEv@@Qt_6_PRIVATE_API
libQt6Quick3DParticles.so.6:_ZN30QQuick3DParticleSpriteSequence25animationDirectionChangedEv@@Qt_6_PRIVATE_API
libQt6Quick3DParticles.so.6:_ZN30QQuick3DParticleSpriteSequenceC1EP7QObject@@Qt_6_PRIVATE_API
libQt6Quick3DParticles.so.6:_ZN30QQuick3DParticleSpriteSequenceC2EP7QObject@@Qt_6_PRIVATE_API
libQt6Quick3DParticles.so.6:_ZN30QQuick3DParticleSpriteSequenceD0Ev@@Qt_6_PRIVATE_API
libQt6Quick3DParticles.so.6:_ZN30QQuick3DParticleSpriteSequenceD1Ev@@Qt_6_PRIVATE_API
libQt6Quick3DParticles.so.6:_ZN30QQuick3DParticleSpriteSequenceD2Ev@@Qt_6_PRIVATE_API
libQt6Quick3DParticles.so.6:_ZN31QQuick3DParticleTargetDirection11qt_metacallEN11QMetaObject4CallEiPPv@@Qt_6_PRIVATE_API
libQt6Quick3DParticles.so.6:_ZN31QQuick3DParticleTargetDirection11qt_metacastEPKc@@Qt_6_PRIVATE_API
libQt6Quick3DParticles.so.6:_ZN31QQuick3DParticleTargetDirection11setPositionERK9QVector3D@@Qt_6_PRIVATE_API
libQt6Quick3DParticles.so.6:_ZN31QQuick3DParticleTargetDirection12setMagnitudeEf@@Qt_6_PRIVATE_API
libQt6Quick3DParticles.so.6:_ZN31QQuick3DParticleTargetDirection13setNormalizedEb@@Qt_6_PRIVATE_API
libQt6Quick3DParticles.so.6:_ZN31QQuick3DParticleTargetDirection15positionChangedEv@@Qt_6_PRIVATE_API
libQt6Quick3DParticles.so.6:_ZN31QQuick3DParticleTargetDirection16magnitudeChangedEv@@Qt_6_PRIVATE_API
libQt6Quick3DParticles.so.6:_ZN31QQuick3DParticleTargetDirection17normalizedChangedEv@@Qt_6_PRIVATE_API
libQt6Quick3DParticles.so.6:_ZN31QQuick3DParticleTargetDirection20setPositionVariationERK9QVector3D@@Qt_6_PRIVATE_API
libQt6Quick3DParticles.so.6:_ZN31QQuick3DParticleTargetDirection21setMagnitudeVariationEf@@Qt_6_PRIVATE_API
libQt6Quick3DParticles.so.6:_ZN31QQuick3DParticleTargetDirection24positionVariationChangedEv@@Qt_6_PRIVATE_API
libQt6Quick3DParticles.so.6:_ZN31QQuick3DParticleTargetDirection25magnitudeChangedVariationEv@@Qt_6_PRIVATE_API
libQt6Quick3DParticles.so.6:_ZN31QQuick3DParticleTargetDirection6sampleERK20QQuick3DParticleData@@Qt_6_PRIVATE_API
libQt6Quick3DParticles.so.6:_ZN31QQuick3DParticleTargetDirectionC1EP7QObject@@Qt_6_PRIVATE_API
libQt6Quick3DParticles.so.6:_ZN31QQuick3DParticleTargetDirectionC2EP7QObject@@Qt_6_PRIVATE_API
libQt6Quick3DParticles.so.6:_ZN31QQuick3DParticleVectorDirection11qt_metacallEN11QMetaObject4CallEiPPv@@Qt_6_PRIVATE_API
libQt6Quick3DParticles.so.6:_ZN31QQuick3DParticleVectorDirection11qt_metacastEPKc@@Qt_6_PRIVATE_API
libQt6Quick3DParticles.so.6:_ZN31QQuick3DParticleVectorDirection12setDirectionERK9QVector3D@@Qt_6_PRIVATE_API
libQt6Quick3DParticles.so.6:_ZN31QQuick3DParticleVectorDirection13setNormalizedEb@@Qt_6_PRIVATE_API
libQt6Quick3DParticles.so.6:_ZN31QQuick3DParticleVectorDirection16directionChangedEv@@Qt_6_PRIVATE_API
libQt6Quick3DParticles.so.6:_ZN31QQuick3DParticleVectorDirection17normalizedChangedEv@@Qt_6_PRIVATE_API
libQt6Quick3DParticles.so.6:_ZN31QQuick3DParticleVectorDirection21setDirectionVariationERK9QVector3D@@Qt_6_PRIVATE_API
libQt6Quick3DParticles.so.6:_ZN31QQuick3DParticleVectorDirection25directionVariationChangedEv@@Qt_6_PRIVATE_API
libQt6Quick3DParticles.so.6:_ZN31QQuick3DParticleVectorDirection6sampleERK20QQuick3DParticleData@@Qt_6_PRIVATE_API
libQt6Quick3DParticles.so.6:_ZN31QQuick3DParticleVectorDirectionC1EP7QObject@@Qt_6_PRIVATE_API
libQt6Quick3DParticles.so.6:_ZN31QQuick3DParticleVectorDirectionC2EP7QObject@@Qt_6_PRIVATE_API
libQt6Quick3DParticles.so.6:_ZN34QQuick3DParticleModelBlendParticle10itemChangeEN14QQuick3DObject10ItemChangeERKNS0_14ItemChangeDataE@@Qt_6_PRIVATE_API
libQt6Quick3DParticles.so.6:_ZN34QQuick3DParticleModelBlendParticle10regenerateEv@@Qt_6_PRIVATE_API
libQt6Quick3DParticles.so.6:_ZN34QQuick3DParticleModelBlendParticle10setEndNodeEP12QQuick3DNode@@Qt_6_PRIVATE_API
libQt6Quick3DParticles.so.6:_ZN34QQuick3DParticleModelBlendParticle10setEndTimeEi@@Qt_6_PRIVATE_API
libQt6Quick3DParticles.so.6:_ZN34QQuick3DParticleModelBlendParticle11qt_metacallEN11QMetaObject4CallEiPPv@@Qt_6_PRIVATE_API
libQt6Quick3DParticles.so.6:_ZN34QQuick3DParticleModelBlendParticle11qt_metacastEPKc@@Qt_6_PRIVATE_API
libQt6Quick3DParticles.so.6:_ZN34QQuick3DParticleModelBlendParticle11randomIndexEi@@Qt_6_PRIVATE_API
libQt6Quick3DParticles.so.6:_ZN34QQuick3DParticleModelBlendParticle11setDelegateEP13QQmlComponent@@Qt_6_PRIVATE_API
libQt6Quick3DParticles.so.6:_ZN34QQuick3DParticleModelBlendParticle11setEmitModeENS_18ModelBlendEmitModeE@@Qt_6_PRIVATE_API
libQt6Quick3DParticles.so.6:_ZN34QQuick3DParticleModelBlendParticle14doSetMaxAmountEi@@Qt_6_PRIVATE_API
libQt6Quick3DParticles.so.6:_ZN34QQuick3DParticleModelBlendParticle14endNodeChangedEv@@Qt_6_PRIVATE_API
libQt6Quick3DParticles.so.6:_ZN34QQuick3DParticleModelBlendParticle14endTimeChangedEv@@Qt_6_PRIVATE_API
libQt6Quick3DParticles.so.6:_ZN34QQuick3DParticleModelBlendParticle14perEmitterDataEi@@Qt_6_PRIVATE_API
libQt6Quick3DParticles.so.6:_ZN34QQuick3DParticleModelBlendParticle15delegateChangedEv@@Qt_6_PRIVATE_API
libQt6Quick3DParticles.so.6:_ZN34QQuick3DParticleModelBlendParticle15emitModeChangedEv@@Qt_6_PRIVATE_API
libQt6Quick3DParticles.so.6:_ZN34QQuick3DParticleModelBlendParticle15setParticleDataEiRK9QVector3DS2_RK9QVector4Dff@@Qt_6_PRIVATE_API
libQt6Quick3DParticles.so.6:_ZN34QQuick3DParticleModelBlendParticle15updateParticlesEv@@Qt_6_PRIVATE_API
libQt6Quick3DParticles.so.6:_ZN34QQuick3DParticleModelBlendParticle16nextCurrentIndexEPK23QQuick3DParticleEmitter@@Qt_6_PRIVATE_API
libQt6Quick3DParticles.so.6:_ZN34QQuick3DParticleModelBlendParticle17componentCompleteEv@@Qt_6_PRIVATE_API
libQt6Quick3DParticles.so.6:_ZN34QQuick3DParticleModelBlendParticle17setActivationNodeEP12QQuick3DNode@@Qt_6_PRIVATE_API
libQt6Quick3DParticles.so.6:_ZN34QQuick3DParticleModelBlendParticle17setModelBlendModeENS_14ModelBlendModeE@@Qt_6_PRIVATE_API
libQt6Quick3DParticles.so.6:_ZN34QQuick3DParticleModelBlendParticle17updateSpatialNodeEP21QSSGRenderGraphObject@@Qt_6_PRIVATE_API
libQt6Quick3DParticles.so.6:_ZN34QQuick3DParticleModelBlendParticle18blendFactorChangedEv@@Qt_6_PRIVATE_API
libQt6Quick3DParticles.so.6:_ZN34QQuick3DParticleModelBlendParticle20handleEndNodeChangedEv@@Qt_6_PRIVATE_API
libQt6Quick3DParticles.so.6:_ZN34QQuick3DParticleModelBlendParticle20updateParticleBufferEP18QSSGParticleBufferRK10QMatrix4x4@@Qt_6_PRIVATE_API
libQt6Quick3DParticles.so.6:_ZN34QQuick3DParticleModelBlendParticle21activationNodeChangedEv@@Qt_6_PRIVATE_API
libQt6Quick3DParticles.so.6:_ZN34QQuick3DParticleModelBlendParticle21modelBlendModeChangedEv@@Qt_6_PRIVATE_API
libQt6Quick3DParticles.so.6:_ZN34QQuick3DParticleModelBlendParticle5resetEv@@Qt_6_PRIVATE_API
libQt6Quick3DParticles.so.6:_ZN34QQuick3DParticleModelBlendParticleC1EP12QQuick3DNode@@Qt_6_PRIVATE_API
libQt6Quick3DParticles.so.6:_ZN34QQuick3DParticleModelBlendParticleC2EP12QQuick3DNode@@Qt_6_PRIVATE_API
libQt6Quick3DParticles.so.6:_ZN34QQuick3DParticleModelBlendParticleD0Ev@@Qt_6_PRIVATE_API
libQt6Quick3DParticles.so.6:_ZN34QQuick3DParticleModelBlendParticleD1Ev@@Qt_6_PRIVATE_API
libQt6Quick3DParticles.so.6:_ZN34QQuick3DParticleModelBlendParticleD2Ev@@Qt_6_PRIVATE_API
libQt6Quick3DParticles.so.6:_ZNK16QQuick3DParticle10metaObjectEv@@Qt_6_PRIVATE_API
libQt6Quick3DParticles.so.6:_ZNK16QQuick3DParticle12fadeInEffectEv@@Qt_6_PRIVATE_API
libQt6Quick3DParticles.so.6:_ZNK16QQuick3DParticle13fadeOutEffectEv@@Qt_6_PRIVATE_API
libQt6Quick3DParticles.so.6:_ZNK16QQuick3DParticle14colorVariationEv@@Qt_6_PRIVATE_API
libQt6Quick3DParticles.so.6:_ZNK16QQuick3DParticle14fadeInDurationEv@@Qt_6_PRIVATE_API
libQt6Quick3DParticles.so.6:_ZNK16QQuick3DParticle15fadeOutDurationEv@@Qt_6_PRIVATE_API
libQt6Quick3DParticles.so.6:_ZNK16QQuick3DParticle15hasTransparencyEv@@Qt_6_PRIVATE_API
libQt6Quick3DParticles.so.6:_ZNK16QQuick3DParticle19alignTargetPositionEv@@Qt_6_PRIVATE_API
libQt6Quick3DParticles.so.6:_ZNK16QQuick3DParticle21unifiedColorVariationEv@@Qt_6_PRIVATE_API
libQt6Quick3DParticles.so.6:_ZNK16QQuick3DParticle5colorEv@@Qt_6_PRIVATE_API
libQt6Quick3DParticles.so.6:_ZNK16QQuick3DParticle6systemEv@@Qt_6_PRIVATE_API
libQt6Quick3DParticles.so.6:_ZNK16QQuick3DParticle7opacityEv@@Qt_6_PRIVATE_API
libQt6Quick3DParticles.so.6:_ZNK16QQuick3DParticle8sortModeEv@@Qt_6_PRIVATE_API
libQt6Quick3DParticles.so.6:_ZNK16QQuick3DParticle9alignModeEv@@Qt_6_PRIVATE_API
libQt6Quick3DParticles.so.6:_ZNK16QQuick3DParticle9maxAmountEv@@Qt_6_PRIVATE_API
libQt6Quick3DParticles.so.6:_ZNK21QQuick3DParticleShape10metaObjectEv@@Qt_6_PRIVATE_API
libQt6Quick3DParticles.so.6:_ZNK21QQuick3DParticleShape18randomPositionCubeEi@@Qt_6_PRIVATE_API
libQt6Quick3DParticles.so.6:_ZNK21QQuick3DParticleShape20randomPositionSphereEi@@Qt_6_PRIVATE_API
libQt6Quick3DParticles.so.6:_ZNK21QQuick3DParticleShape22randomPositionCylinderEi@@Qt_6_PRIVATE_API
libQt6Quick3DParticles.so.6:_ZNK21QQuick3DParticleShape4fillEv@@Qt_6_PRIVATE_API
libQt6Quick3DParticles.so.6:_ZNK21QQuick3DParticleShape4typeEv@@Qt_6_PRIVATE_API
libQt6Quick3DParticles.so.6:_ZNK21QQuick3DParticleShape7extentsEv@@Qt_6_PRIVATE_API
libQt6Quick3DParticles.so.6:_ZNK22QQuick3DParticleSystem10metaObjectEv@@Qt_6_PRIVATE_API
libQt6Quick3DParticles.so.6:_ZNK22QQuick3DParticleSystem11currentTimeEv@@Qt_6_PRIVATE_API
libQt6Quick3DParticles.so.6:_ZNK22QQuick3DParticleSystem11loggingDataEv@@Qt_6_PRIVATE_API
libQt6Quick3DParticles.so.6:_ZNK22QQuick3DParticleSystem13particleCountEv@@Qt_6_PRIVATE_API
libQt6Quick3DParticles.so.6:_ZNK22QQuick3DParticleSystem13useRandomSeedEv@@Qt_6_PRIVATE_API
libQt6Quick3DParticles.so.6:_ZNK22QQuick3DParticleSystem4seedEv@@Qt_6_PRIVATE_API
libQt6Quick3DParticles.so.6:_ZNK22QQuick3DParticleSystem4timeEv@@Qt_6_PRIVATE_API
libQt6Quick3DParticles.so.6:_ZNK22QQuick3DParticleSystem7loggingEv@@Qt_6_PRIVATE_API
libQt6Quick3DParticles.so.6:_ZNK22QQuick3DParticleSystem8isPausedEv@@Qt_6_PRIVATE_API
libQt6Quick3DParticles.so.6:_ZNK22QQuick3DParticleSystem8isSharedEPK16QQuick3DParticle@@Qt_6_PRIVATE_API
libQt6Quick3DParticles.so.6:_ZNK22QQuick3DParticleSystem9isRunningEv@@Qt_6_PRIVATE_API
libQt6Quick3DParticles.so.6:_ZNK22QQuick3DParticleSystem9startTimeEv@@Qt_6_PRIVATE_API
libQt6Quick3DParticles.so.6:_ZNK22QQuick3DParticleWander10globalPaceEv@@Qt_6_PRIVATE_API
libQt6Quick3DParticles.so.6:_ZNK22QQuick3DParticleWander10metaObjectEv@@Qt_6_PRIVATE_API
libQt6Quick3DParticles.so.6:_ZNK22QQuick3DParticleWander10uniquePaceEv@@Qt_6_PRIVATE_API
libQt6Quick3DParticles.so.6:_ZNK22QQuick3DParticleWander12globalAmountEv@@Qt_6_PRIVATE_API
libQt6Quick3DParticles.so.6:_ZNK22QQuick3DParticleWander12uniqueAmountEv@@Qt_6_PRIVATE_API
libQt6Quick3DParticles.so.6:_ZNK22QQuick3DParticleWander14fadeInDurationEv@@Qt_6_PRIVATE_API
libQt6Quick3DParticles.so.6:_ZNK22QQuick3DParticleWander15fadeOutDurationEv@@Qt_6_PRIVATE_API
libQt6Quick3DParticles.so.6:_ZNK22QQuick3DParticleWander15globalPaceStartEv@@Qt_6_PRIVATE_API
libQt6Quick3DParticles.so.6:_ZNK22QQuick3DParticleWander19uniquePaceVariationEv@@Qt_6_PRIVATE_API
libQt6Quick3DParticles.so.6:_ZNK22QQuick3DParticleWander21uniqueAmountVariationEv@@Qt_6_PRIVATE_API
libQt6Quick3DParticles.so.6:_ZNK23QQuick3DParticleEmitter10metaObjectEv@@Qt_6_PRIVATE_API
libQt6Quick3DParticles.so.6:_ZNK23QQuick3DParticleEmitter13particleScaleEv@@Qt_6_PRIVATE_API
libQt6Quick3DParticles.so.6:_ZNK23QQuick3DParticleEmitter14emitBurstCountEv@@Qt_6_PRIVATE_API
libQt6Quick3DParticles.so.6:_ZNK23QQuick3DParticleEmitter16particleEndScaleEv@@Qt_6_PRIVATE_API
libQt6Quick3DParticles.so.6:_ZNK23QQuick3DParticleEmitter16particleRotationEv@@Qt_6_PRIVATE_API
libQt6Quick3DParticles.so.6:_ZNK23QQuick3DParticleEmitter17lifeSpanVariationEv@@Qt_6_PRIVATE_API
libQt6Quick3DParticles.so.6:_ZNK23QQuick3DParticleEmitter22particleScaleVariationEv@@Qt_6_PRIVATE_API
libQt6Quick3DParticles.so.6:_ZNK23QQuick3DParticleEmitter24particleRotationVelocityEv@@Qt_6_PRIVATE_API
libQt6Quick3DParticles.so.6:_ZNK23QQuick3DParticleEmitter25particleEndScaleVariationEv@@Qt_6_PRIVATE_API
libQt6Quick3DParticles.so.6:_ZNK23QQuick3DParticleEmitter25particleRotationVariationEv@@Qt_6_PRIVATE_API
libQt6Quick3DParticles.so.6:_ZNK23QQuick3DParticleEmitter33particleRotationVelocityVariationEv@@Qt_6_PRIVATE_API
libQt6Quick3DParticles.so.6:_ZNK23QQuick3DParticleEmitter5shapeEv@@Qt_6_PRIVATE_API
libQt6Quick3DParticles.so.6:_ZNK23QQuick3DParticleEmitter6systemEv@@Qt_6_PRIVATE_API
libQt6Quick3DParticles.so.6:_ZNK23QQuick3DParticleEmitter7enabledEv@@Qt_6_PRIVATE_API
libQt6Quick3DParticles.so.6:_ZNK23QQuick3DParticleEmitter8emitRateEv@@Qt_6_PRIVATE_API
libQt6Quick3DParticles.so.6:_ZNK23QQuick3DParticleEmitter8lifeSpanEv@@Qt_6_PRIVATE_API
libQt6Quick3DParticles.so.6:_ZNK23QQuick3DParticleEmitter8particleEv@@Qt_6_PRIVATE_API
libQt6Quick3DParticles.so.6:_ZNK23QQuick3DParticleEmitter8velocityEv@@Qt_6_PRIVATE_API
libQt6Quick3DParticles.so.6:_ZNK23QQuick3DParticleEmitter9depthBiasEv@@Qt_6_PRIVATE_API
libQt6Quick3DParticles.so.6:_ZNK23QQuick3DParticleEmitter9emitBurstEx@@Qt_6_PRIVATE_API
libQt6Quick3DParticles.so.6:_ZNK23QQuick3DParticleGravity10metaObjectEv@@Qt_6_PRIVATE_API
libQt6Quick3DParticles.so.6:_ZNK23QQuick3DParticleGravity9directionEv@@Qt_6_PRIVATE_API
libQt6Quick3DParticles.so.6:_ZNK23QQuick3DParticleGravity9magnitudeEv@@Qt_6_PRIVATE_API
libQt6Quick3DParticles.so.6:_ZNK24QQuick3DParticleAffector10metaObjectEv@@Qt_6_PRIVATE_API
libQt6Quick3DParticles.so.6:_ZNK24QQuick3DParticleAffector13particleCountEv@@Qt_6_PRIVATE_API
libQt6Quick3DParticles.so.6:_ZNK24QQuick3DParticleAffector6systemEv@@Qt_6_PRIVATE_API
libQt6Quick3DParticles.so.6:_ZNK24QQuick3DParticleAffector7enabledEv@@Qt_6_PRIVATE_API
libQt6Quick3DParticles.so.6:_ZNK24QQuick3DParticleAffector8particleEx@@Qt_6_PRIVATE_API
libQt6Quick3DParticles.so.6:_ZNK24QQuick3DParticleRepeller10metaObjectEv@@Qt_6_PRIVATE_API
libQt6Quick3DParticles.so.6:_ZNK24QQuick3DParticleRepeller11outerRadiusEv@@Qt_6_PRIVATE_API
libQt6Quick3DParticles.so.6:_ZNK24QQuick3DParticleRepeller6radiusEv@@Qt_6_PRIVATE_API
libQt6Quick3DParticles.so.6:_ZNK24QQuick3DParticleRepeller8strengthEv@@Qt_6_PRIVATE_API
libQt6Quick3DParticles.so.6:_ZNK25QQuick3DParticleAttractor10metaObjectEv@@Qt_6_PRIVATE_API
libQt6Quick3DParticles.so.6:_ZNK25QQuick3DParticleAttractor15positionsAmountEv@@Qt_6_PRIVATE_API
libQt6Quick3DParticles.so.6:_ZNK25QQuick3DParticleAttractor17durationVariationEv@@Qt_6_PRIVATE_API
libQt6Quick3DParticles.so.6:_ZNK25QQuick3DParticleAttractor17positionVariationEv@@Qt_6_PRIVATE_API
libQt6Quick3DParticles.so.6:_ZNK25QQuick3DParticleAttractor18useCachedPositionsEv@@Qt_6_PRIVATE_API
libQt6Quick3DParticles.so.6:_ZNK25QQuick3DParticleAttractor5shapeEv@@Qt_6_PRIVATE_API
libQt6Quick3DParticles.so.6:_ZNK25QQuick3DParticleAttractor8durationEv@@Qt_6_PRIVATE_API
libQt6Quick3DParticles.so.6:_ZNK25QQuick3DParticleAttractor9hideAtEndEv@@Qt_6_PRIVATE_API
libQt6Quick3DParticles.so.6:_ZNK25QQuick3DParticleDirection10metaObjectEv@@Qt_6_PRIVATE_API
libQt6Quick3DParticles.so.6:_ZNK25QQuick3DParticleEmitBurst10metaObjectEv@@Qt_6_PRIVATE_API
libQt6Quick3DParticles.so.6:_ZNK25QQuick3DParticleEmitBurst4timeEv@@Qt_6_PRIVATE_API
libQt6Quick3DParticles.so.6:_ZNK25QQuick3DParticleEmitBurst6amountEv@@Qt_6_PRIVATE_API
libQt6Quick3DParticles.so.6:_ZNK25QQuick3DParticleEmitBurst8durationEv@@Qt_6_PRIVATE_API
libQt6Quick3DParticles.so.6:_ZNK26QQuick3DParticleModelShape10metaObjectEv@@Qt_6_PRIVATE_API
libQt6Quick3DParticles.so.6:_ZNK26QQuick3DParticleModelShape4fillEv@@Qt_6_PRIVATE_API
libQt6Quick3DParticles.so.6:_ZNK26QQuick3DParticleModelShape8delegateEv@@Qt_6_PRIVATE_API
libQt6Quick3DParticles.so.6:_ZNK27QQuick3DParticleCustomShape10metaObjectEv@@Qt_6_PRIVATE_API
libQt6Quick3DParticles.so.6:_ZNK27QQuick3DParticleCustomShape13randomizeDataEv@@Qt_6_PRIVATE_API
libQt6Quick3DParticles.so.6:_ZNK27QQuick3DParticleCustomShape6sourceEv@@Qt_6_PRIVATE_API
libQt6Quick3DParticles.so.6:_ZNK28QQuick3DParticleDynamicBurst10metaObjectEv@@Qt_6_PRIVATE_API
libQt6Quick3DParticles.so.6:_ZNK28QQuick3DParticleDynamicBurst11triggerModeEv@@Qt_6_PRIVATE_API
libQt6Quick3DParticles.so.6:_ZNK28QQuick3DParticleDynamicBurst15amountVariationEv@@Qt_6_PRIVATE_API
libQt6Quick3DParticles.so.6:_ZNK28QQuick3DParticleDynamicBurst7enabledEv@@Qt_6_PRIVATE_API
libQt6Quick3DParticles.so.6:_ZNK28QQuick3DParticleLineParticle10metaObjectEv@@Qt_6_PRIVATE_API
libQt6Quick3DParticles.so.6:_ZNK28QQuick3DParticleLineParticle12segmentCountEv@@Qt_6_PRIVATE_API
libQt6Quick3DParticles.so.6:_ZNK28QQuick3DParticleLineParticle12texcoordModeEv@@Qt_6_PRIVATE_API
libQt6Quick3DParticles.so.6:_ZNK28QQuick3DParticleLineParticle14lengthDeltaMinEv@@Qt_6_PRIVATE_API
libQt6Quick3DParticles.so.6:_ZNK28QQuick3DParticleLineParticle15lengthVariationEv@@Qt_6_PRIVATE_API
libQt6Quick3DParticles.so.6:_ZNK28QQuick3DParticleLineParticle15scaleMultiplierEv@@Qt_6_PRIVATE_API
libQt6Quick3DParticles.so.6:_ZNK28QQuick3DParticleLineParticle18eolFadeOutDurationEv@@Qt_6_PRIVATE_API
libQt6Quick3DParticles.so.6:_ZNK28QQuick3DParticleLineParticle18texcoordMultiplierEv@@Qt_6_PRIVATE_API
libQt6Quick3DParticles.so.6:_ZNK28QQuick3DParticleLineParticle6lengthEv@@Qt_6_PRIVATE_API
libQt6Quick3DParticles.so.6:_ZNK28QQuick3DParticleLineParticle9alphaFadeEv@@Qt_6_PRIVATE_API
libQt6Quick3DParticles.so.6:_ZNK28QQuick3DParticlePointRotator10metaObjectEv@@Qt_6_PRIVATE_API
libQt6Quick3DParticles.so.6:_ZNK28QQuick3DParticlePointRotator10pivotPointEv@@Qt_6_PRIVATE_API
libQt6Quick3DParticles.so.6:_ZNK28QQuick3DParticlePointRotator9directionEv@@Qt_6_PRIVATE_API
libQt6Quick3DParticles.so.6:_ZNK28QQuick3DParticlePointRotator9magnitudeEv@@Qt_6_PRIVATE_API
libQt6Quick3DParticles.so.6:_ZNK28QQuick3DParticleTrailEmitter10metaObjectEv@@Qt_6_PRIVATE_API
libQt6Quick3DParticles.so.6:_ZNK28QQuick3DParticleTrailEmitter6followEv@@Qt_6_PRIVATE_API
libQt6Quick3DParticles.so.6:_ZNK28QQuick3DParticleTrailEmitter9hasBurstsEv@@Qt_6_PRIVATE_API
libQt6Quick3DParticles.so.6:_ZNK29QQuick3DParticleAbstractShape10metaObjectEv@@Qt_6_PRIVATE_API
libQt6Quick3DParticles.so.6:_ZNK29QQuick3DParticleModelParticle10metaObjectEv@@Qt_6_PRIVATE_API
libQt6Quick3DParticles.so.6:_ZNK29QQuick3DParticleModelParticle13instanceTableEv@@Qt_6_PRIVATE_API
libQt6Quick3DParticles.so.6:_ZNK29QQuick3DParticleModelParticle8delegateEv@@Qt_6_PRIVATE_API
libQt6Quick3DParticles.so.6:_ZNK29QQuick3DParticleScaleAffector10metaObjectEv@@Qt_6_PRIVATE_API
libQt6Quick3DParticles.so.6:_ZNK29QQuick3DParticleScaleAffector11easingCurveEv@@Qt_6_PRIVATE_API
libQt6Quick3DParticles.so.6:_ZNK29QQuick3DParticleScaleAffector4typeEv@@Qt_6_PRIVATE_API
libQt6Quick3DParticles.so.6:_ZNK29QQuick3DParticleScaleAffector7maxSizeEv@@Qt_6_PRIVATE_API
libQt6Quick3DParticles.so.6:_ZNK29QQuick3DParticleScaleAffector7minSizeEv@@Qt_6_PRIVATE_API
libQt6Quick3DParticles.so.6:_ZNK29QQuick3DParticleScaleAffector8durationEv@@Qt_6_PRIVATE_API
libQt6Quick3DParticles.so.6:_ZNK29QQuick3DParticleSystemLogging10metaObjectEv@@Qt_6_PRIVATE_API
libQt6Quick3DParticles.so.6:_ZNK29QQuick3DParticleSystemLogging11timeAverageEv@@Qt_6_PRIVATE_API
libQt6Quick3DParticles.so.6:_ZNK29QQuick3DParticleSystemLogging12particlesMaxEv@@Qt_6_PRIVATE_API
libQt6Quick3DParticles.so.6:_ZNK29QQuick3DParticleSystemLogging13particlesUsedEv@@Qt_6_PRIVATE_API
libQt6Quick3DParticles.so.6:_ZNK29QQuick3DParticleSystemLogging13timeDeviationEv@@Qt_6_PRIVATE_API
libQt6Quick3DParticles.so.6:_ZNK29QQuick3DParticleSystemLogging15loggingIntervalEv@@Qt_6_PRIVATE_API
libQt6Quick3DParticles.so.6:_ZNK29QQuick3DParticleSystemLogging4timeEv@@Qt_6_PRIVATE_API
libQt6Quick3DParticles.so.6:_ZNK29QQuick3DParticleSystemLogging7updatesEv@@Qt_6_PRIVATE_API
libQt6Quick3DParticles.so.6:_ZNK30QQuick3DParticleSpriteParticle10colorTableEv@@Qt_6_PRIVATE_API
libQt6Quick3DParticles.so.6:_ZNK30QQuick3DParticleSpriteParticle10metaObjectEv@@Qt_6_PRIVATE_API
libQt6Quick3DParticles.so.6:_ZNK30QQuick3DParticleSpriteParticle13particleScaleEv@@Qt_6_PRIVATE_API
libQt6Quick3DParticles.so.6:_ZNK30QQuick3DParticleSpriteParticle14spriteSequenceEv@@Qt_6_PRIVATE_API
libQt6Quick3DParticles.so.6:_ZNK30QQuick3DParticleSpriteParticle16castsReflectionsEv@@Qt_6_PRIVATE_API
libQt6Quick3DParticles.so.6:_ZNK30QQuick3DParticleSpriteParticle6spriteEv@@Qt_6_PRIVATE_API
libQt6Quick3DParticles.so.6:_ZNK30QQuick3DParticleSpriteParticle7offsetXEv@@Qt_6_PRIVATE_API
libQt6Quick3DParticles.so.6:_ZNK30QQuick3DParticleSpriteParticle7offsetYEv@@Qt_6_PRIVATE_API
libQt6Quick3DParticles.so.6:_ZNK30QQuick3DParticleSpriteParticle9billboardEv@@Qt_6_PRIVATE_API
libQt6Quick3DParticles.so.6:_ZNK30QQuick3DParticleSpriteParticle9blendModeEv@@Qt_6_PRIVATE_API
libQt6Quick3DParticles.so.6:_ZNK30QQuick3DParticleSpriteSequence10frameCountEv@@Qt_6_PRIVATE_API
libQt6Quick3DParticles.so.6:_ZNK30QQuick3DParticleSpriteSequence10frameIndexEv@@Qt_6_PRIVATE_API
libQt6Quick3DParticles.so.6:_ZNK30QQuick3DParticleSpriteSequence10metaObjectEv@@Qt_6_PRIVATE_API
libQt6Quick3DParticles.so.6:_ZNK30QQuick3DParticleSpriteSequence11interpolateEv@@Qt_6_PRIVATE_API
libQt6Quick3DParticles.so.6:_ZNK30QQuick3DParticleSpriteSequence11randomStartEv@@Qt_6_PRIVATE_API
libQt6Quick3DParticles.so.6:_ZNK30QQuick3DParticleSpriteSequence17durationVariationEv@@Qt_6_PRIVATE_API
libQt6Quick3DParticles.so.6:_ZNK30QQuick3DParticleSpriteSequence18animationDirectionEv@@Qt_6_PRIVATE_API
libQt6Quick3DParticles.so.6:_ZNK30QQuick3DParticleSpriteSequence8durationEv@@Qt_6_PRIVATE_API
libQt6Quick3DParticles.so.6:_ZNK31QQuick3DParticleTargetDirection10metaObjectEv@@Qt_6_PRIVATE_API
libQt6Quick3DParticles.so.6:_ZNK31QQuick3DParticleTargetDirection10normalizedEv@@Qt_6_PRIVATE_API
libQt6Quick3DParticles.so.6:_ZNK31QQuick3DParticleTargetDirection17positionVariationEv@@Qt_6_PRIVATE_API
libQt6Quick3DParticles.so.6:_ZNK31QQuick3DParticleTargetDirection18magnitudeVariationEv@@Qt_6_PRIVATE_API
libQt6Quick3DParticles.so.6:_ZNK31QQuick3DParticleTargetDirection8positionEv@@Qt_6_PRIVATE_API
libQt6Quick3DParticles.so.6:_ZNK31QQuick3DParticleTargetDirection9magnitudeEv@@Qt_6_PRIVATE_API
libQt6Quick3DParticles.so.6:_ZNK31QQuick3DParticleVectorDirection10metaObjectEv@@Qt_6_PRIVATE_API
libQt6Quick3DParticles.so.6:_ZNK31QQuick3DParticleVectorDirection10normalizedEv@@Qt_6_PRIVATE_API
libQt6Quick3DParticles.so.6:_ZNK31QQuick3DParticleVectorDirection18directionVariationEv@@Qt_6_PRIVATE_API
libQt6Quick3DParticles.so.6:_ZNK31QQuick3DParticleVectorDirection9directionEv@@Qt_6_PRIVATE_API
libQt6Quick3DParticles.so.6:_ZNK34QQuick3DParticleModelBlendParticle10metaObjectEv@@Qt_6_PRIVATE_API
libQt6Quick3DParticles.so.6:_ZNK34QQuick3DParticleModelBlendParticle12lastParticleEv@@Qt_6_PRIVATE_API
libQt6Quick3DParticles.so.6:_ZNK34QQuick3DParticleModelBlendParticle14activationNodeEv@@Qt_6_PRIVATE_API
libQt6Quick3DParticles.so.6:_ZNK34QQuick3DParticleModelBlendParticle14modelBlendModeEv@@Qt_6_PRIVATE_API
libQt6Quick3DParticles.so.6:_ZNK34QQuick3DParticleModelBlendParticle14particleCenterEi@@Qt_6_PRIVATE_API
libQt6Quick3DParticles.so.6:_ZNK34QQuick3DParticleModelBlendParticle19particleEndPositionEi@@Qt_6_PRIVATE_API
libQt6Quick3DParticles.so.6:_ZNK34QQuick3DParticleModelBlendParticle19particleEndRotationEi@@Qt_6_PRIVATE_API
libQt6Quick3DParticles.so.6:_ZNK34QQuick3DParticleModelBlendParticle7endNodeEv@@Qt_6_PRIVATE_API
libQt6Quick3DParticles.so.6:_ZNK34QQuick3DParticleModelBlendParticle7endTimeEv@@Qt_6_PRIVATE_API
libQt6Quick3DParticles.so.6:_ZNK34QQuick3DParticleModelBlendParticle8delegateEv@@Qt_6_PRIVATE_API
libQt6Quick3DParticles.so.6:_ZNK34QQuick3DParticleModelBlendParticle8emitModeEv@@Qt_6_PRIVATE_API
libQt6Quick3DParticles.so.6:_ZThn16_N16QQuick3DParticle17componentCompleteEv@@Qt_6_PRIVATE_API
libQt6Quick3DParticles.so.6:_ZThn16_N16QQuick3DParticleD0Ev@@Qt_6_PRIVATE_API
libQt6Quick3DParticles.so.6:_ZThn16_N16QQuick3DParticleD1Ev@@Qt_6_PRIVATE_API
libQt6Quick3DParticles.so.6:_ZThn16_N22QQuick3DParticleSystem17componentCompleteEv@@Qt_6_PRIVATE_API
libQt6Quick3DParticles.so.6:_ZThn16_N22QQuick3DParticleSystemD0Ev@@Qt_6_PRIVATE_API
libQt6Quick3DParticles.so.6:_ZThn16_N22QQuick3DParticleSystemD1Ev@@Qt_6_PRIVATE_API
libQt6Quick3DParticles.so.6:_ZThn16_N23QQuick3DParticleEmitter17componentCompleteEv@@Qt_6_PRIVATE_API
libQt6Quick3DParticles.so.6:_ZThn16_N23QQuick3DParticleEmitterD0Ev@@Qt_6_PRIVATE_API
libQt6Quick3DParticles.so.6:_ZThn16_N23QQuick3DParticleEmitterD1Ev@@Qt_6_PRIVATE_API
libQt6Quick3DParticles.so.6:_ZThn16_N24QQuick3DParticleAffector17componentCompleteEv@@Qt_6_PRIVATE_API
libQt6Quick3DParticles.so.6:_ZThn16_N24QQuick3DParticleAffectorD0Ev@@Qt_6_PRIVATE_API
libQt6Quick3DParticles.so.6:_ZThn16_N24QQuick3DParticleAffectorD1Ev@@Qt_6_PRIVATE_API
libQt6Quick3DParticles.so.6:_ZThn16_N25QQuick3DParticleEmitBurst17componentCompleteEv@@Qt_6_PRIVATE_API
libQt6Quick3DParticles.so.6:_ZThn16_N25QQuick3DParticleEmitBurstD0Ev@@Qt_6_PRIVATE_API
libQt6Quick3DParticles.so.6:_ZThn16_N25QQuick3DParticleEmitBurstD1Ev@@Qt_6_PRIVATE_API
libQt6Quick3DParticles.so.6:_ZThn16_N26QQuick3DParticleModelShapeD0Ev@@Qt_6_PRIVATE_API
libQt6Quick3DParticles.so.6:_ZThn16_N26QQuick3DParticleModelShapeD1Ev@@Qt_6_PRIVATE_API
libQt6Quick3DParticles.so.6:_ZThn16_N28QQuick3DParticleLineParticleD0Ev@@Qt_6_PRIVATE_API
libQt6Quick3DParticles.so.6:_ZThn16_N28QQuick3DParticleLineParticleD1Ev@@Qt_6_PRIVATE_API
libQt6Quick3DParticles.so.6:_ZThn16_N29QQuick3DParticleAbstractShape17componentCompleteEv@@Qt_6_PRIVATE_API
libQt6Quick3DParticles.so.6:_ZThn16_N29QQuick3DParticleModelParticle17componentCompleteEv@@Qt_6_PRIVATE_API
libQt6Quick3DParticles.so.6:_ZThn16_N30QQuick3DParticleSpriteParticle17componentCompleteEv@@Qt_6_PRIVATE_API
libQt6Quick3DParticles.so.6:_ZThn16_N30QQuick3DParticleSpriteParticleD0Ev@@Qt_6_PRIVATE_API
libQt6Quick3DParticles.so.6:_ZThn16_N30QQuick3DParticleSpriteParticleD1Ev@@Qt_6_PRIVATE_API
libQt6Quick3DParticles.so.6:_ZThn16_N30QQuick3DParticleSpriteSequence17componentCompleteEv@@Qt_6_PRIVATE_API
libQt6Quick3DParticles.so.6:_ZThn16_N30QQuick3DParticleSpriteSequenceD0Ev@@Qt_6_PRIVATE_API
libQt6Quick3DParticles.so.6:_ZThn16_N30QQuick3DParticleSpriteSequenceD1Ev@@Qt_6_PRIVATE_API
libQt6Quick3DParticles.so.6:_ZThn16_N34QQuick3DParticleModelBlendParticle17componentCompleteEv@@Qt_6_PRIVATE_API
libQt6Quick3DParticles.so.6:_ZThn16_N34QQuick3DParticleModelBlendParticleD0Ev@@Qt_6_PRIVATE_API
libQt6Quick3DParticles.so.6:_ZThn16_N34QQuick3DParticleModelBlendParticleD1Ev@@Qt_6_PRIVATE_API
libQt6Quick3DRuntimeRender.so.6:NonQt
libQt6Quick3DRuntimeRender.so.6:Qt_6
libQt6Quick3DRuntimeRender.so.6:Qt_6_PRIVATE_API
libQt6Quick3DRuntimeRender.so.6:_Z5qHash18QSSGShaderFeatures@@Qt_6_PRIVATE_API
libQt6Quick3DRuntimeRender.so.6:_ZN12DepthMapPass10renderPassER12QSSGRenderer@@Qt_6_PRIVATE_API
libQt6Quick3DRuntimeRender.so.6:_ZN12DepthMapPass10renderPrepER12QSSGRendererR19QSSGLayerRenderData@@Qt_6_PRIVATE_API
libQt6Quick3DRuntimeRender.so.6:_ZN12DepthMapPass13resetForFrameEv@@Qt_6_PRIVATE_API
libQt6Quick3DRuntimeRender.so.6:_ZN12QSSGRenderer10beginFrameER15QSSGRenderLayerb@@Qt_6_PRIVATE_API
libQt6Quick3DRuntimeRender.so.6:_ZN12QSSGRenderer10rhiPrepareER15QSSGRenderLayer@@Qt_6_PRIVATE_API
libQt6Quick3DRuntimeRender.so.6:_ZN12QSSGRenderer14endLayerRenderEv@@Qt_6_PRIVATE_API
libQt6Quick3DRuntimeRender.so.6:_ZN12QSSGRenderer16beginLayerRenderER19QSSGLayerRenderData@@Qt_6_PRIVATE_API
libQt6Quick3DRuntimeRender.so.6:_ZN12QSSGRenderer16cleanupResourcesER4QSetIP21QSSGRenderGraphObjectE@@Qt_6_PRIVATE_API
libQt6Quick3DRuntimeRender.so.6:_ZN12QSSGRenderer16cleanupResourcesER5QListIP21QSSGRenderGraphObjectE@@Qt_6_PRIVATE_API
libQt6Quick3DRuntimeRender.so.6:_ZN12QSSGRenderer21addMaterialDirtyClearEP21QSSGRenderGraphObject@@Qt_6_PRIVATE_API
libQt6Quick3DRuntimeRender.so.6:_ZN12QSSGRenderer21prepareLayerForRenderER15QSSGRenderLayer@@Qt_6_PRIVATE_API
libQt6Quick3DRuntimeRender.so.6:_ZN12QSSGRenderer21resetResourceCountersEP15QSSGRenderLayer@@Qt_6_PRIVATE_API
libQt6Quick3DRuntimeRender.so.6:_ZN12QSSGRenderer22releaseCachedResourcesEv@@Qt_6_PRIVATE_API
libQt6Quick3DRuntimeRender.so.6:_ZN12QSSGRenderer26cleanupUnreferencedBuffersEP15QSSGRenderLayer@@Qt_6_PRIVATE_API
libQt6Quick3DRuntimeRender.so.6:_ZN12QSSGRenderer26getOrCreateLayerRenderDataER15QSSGRenderLayer@@Qt_6_PRIVATE_API
libQt6Quick3DRuntimeRender.so.6:_ZN12QSSGRenderer8endFrameER15QSSGRenderLayerb@@Qt_6_PRIVATE_API
libQt6Quick3DRuntimeRender.so.6:_ZN12QSSGRenderer9rhiRenderER15QSSGRenderLayer@@Qt_6_PRIVATE_API
libQt6Quick3DRuntimeRender.so.6:_ZN12QSSGRendererC1Ev@@Qt_6_PRIVATE_API
libQt6Quick3DRuntimeRender.so.6:_ZN12QSSGRendererC2Ev@@Qt_6_PRIVATE_API
libQt6Quick3DRuntimeRender.so.6:_ZN12QSSGRendererD1Ev@@Qt_6_PRIVATE_API
libQt6Quick3DRuntimeRender.so.6:_ZN12QSSGRendererD2Ev@@Qt_6_PRIVATE_API
libQt6Quick3DRuntimeRender.so.6:_ZN13QSSGFrameData5clearEv@@Qt_6_PRIVATE_API
libQt6Quick3DRuntimeRender.so.6:_ZN13QSSGFrameDataC1EP26QSSGRenderContextInterface@@Qt_6_PRIVATE_API
libQt6Quick3DRuntimeRender.so.6:_ZN13QSSGFrameDataC2EP26QSSGRenderContextInterface@@Qt_6_PRIVATE_API
libQt6Quick3DRuntimeRender.so.6:_ZN13QSSGInputUtil16getStreamForFileERK7QStringbPS0_@@Qt_6_PRIVATE_API
libQt6Quick3DRuntimeRender.so.6:_ZN13QSSGInputUtil23getStreamForTextureFileERK7QStringbPS0_PNS_8FileTypeE@@Qt_6_PRIVATE_API
libQt6Quick3DRuntimeRender.so.6:_ZN13QSSGRhiBufferC1ER14QSSGRhiContextN10QRhiBuffer4TypeE6QFlagsINS2_9UsageFlagEEjxN17QRhiCommandBuffer11IndexFormatE@@Qt_6_PRIVATE_API
libQt6Quick3DRuntimeRender.so.6:_ZN13QSSGRhiBufferC2ER14QSSGRhiContextN10QRhiBuffer4TypeE6QFlagsINS2_9UsageFlagEEjxN17QRhiCommandBuffer11IndexFormatE@@Qt_6_PRIVATE_API
libQt6Quick3DRuntimeRender.so.6:_ZN13QSSGRhiBufferD0Ev@@Qt_6_PRIVATE_API
libQt6Quick3DRuntimeRender.so.6:_ZN13QSSGRhiBufferD1Ev@@Qt_6_PRIVATE_API
libQt6Quick3DRuntimeRender.so.6:_ZN13QSSGRhiBufferD2Ev@@Qt_6_PRIVATE_API
libQt6Quick3DRuntimeRender.so.6:_ZN13RenderHelpers19rhiRenderRenderableEP14QSSGRhiContextRK28QSSGRhiGraphicsPipelineStateR20QSSGRenderableObjectPb25QSSGRenderTextureCubeFace@@Qt_6_PRIVATE_API
libQt6Quick3DRuntimeRender.so.6:_ZN13RenderHelpers20rhiPrepareRenderableEP14QSSGRhiContextPvRK19QSSGLayerRenderDataR20QSSGRenderableObjectP24QRhiRenderPassDescriptorP28QSSGRhiGraphicsPipelineState18QSSGShaderFeaturesiP16QSSGRenderCameraP10QMatrix4x425QSSGRenderTextureCubeFaceP22QSSGReflectionMapEntry@@Qt_6_PRIVATE_API
libQt6Quick3DRuntimeRender.so.6:_ZN14QSSGRenderNode10clearDirtyENS_9DirtyFlagE@@Qt_6_PRIVATE_API
libQt6Quick3DRuntimeRender.so.6:_ZN14QSSGRenderNode11removeChildERS_@@Qt_6_PRIVATE_API
libQt6Quick3DRuntimeRender.so.6:_ZN14QSSGRenderNode15removeFromGraphEv@@Qt_6_PRIVATE_API
libQt6Quick3DRuntimeRender.so.6:_ZN14QSSGRenderNode24calculateGlobalVariablesEv@@Qt_6_PRIVATE_API
libQt6Quick3DRuntimeRender.so.6:_ZN14QSSGRenderNode24calculateTransformMatrixE9QVector3DS0_S0_11QQuaternion@@Qt_6_PRIVATE_API
libQt6Quick3DRuntimeRender.so.6:_ZN14QSSGRenderNode27calculateMVPAndNormalMatrixERK10QMatrix4x4S2_RS0_R14QGenericMatrixILi3ELi3EfE@@Qt_6_PRIVATE_API
libQt6Quick3DRuntimeRender.so.6:_ZN14QSSGRenderNode8addChildERS_@@Qt_6_PRIVATE_API
libQt6Quick3DRuntimeRender.so.6:_ZN14QSSGRenderNode8setStateENS_10LocalStateEb@@Qt_6_PRIVATE_API
libQt6Quick3DRuntimeRender.so.6:_ZN14QSSGRenderNode9markDirtyENS_9DirtyFlagE@@Qt_6_PRIVATE_API
libQt6Quick3DRuntimeRender.so.6:_ZN14QSSGRenderNodeC1EN21QSSGRenderGraphObject4TypeE@@Qt_6_PRIVATE_API
libQt6Quick3DRuntimeRender.so.6:_ZN14QSSGRenderNodeC1Ev@@Qt_6_PRIVATE_API
libQt6Quick3DRuntimeRender.so.6:_ZN14QSSGRenderNodeC2EN21QSSGRenderGraphObject4TypeE@@Qt_6_PRIVATE_API
libQt6Quick3DRuntimeRender.so.6:_ZN14QSSGRenderNodeC2Ev@@Qt_6_PRIVATE_API
libQt6Quick3DRuntimeRender.so.6:_ZN14QSSGRenderNodeD0Ev@@Qt_6_PRIVATE_API
libQt6Quick3DRuntimeRender.so.6:_ZN14QSSGRenderNodeD1Ev@@Qt_6_PRIVATE_API
libQt6Quick3DRuntimeRender.so.6:_ZN14QSSGRenderNodeD2Ev@@Qt_6_PRIVATE_API
libQt6Quick3DRuntimeRender.so.6:_ZN14QSSGRenderSkin8boneDataEv@@Qt_6_PRIVATE_API
libQt6Quick3DRuntimeRender.so.6:_ZN14QSSGRenderSkinC1Ev@@Qt_6_PRIVATE_API
libQt6Quick3DRuntimeRender.so.6:_ZN14QSSGRenderSkinC2Ev@@Qt_6_PRIVATE_API
libQt6Quick3DRuntimeRender.so.6:_ZN14QSSGRenderSkinD0Ev@@Qt_6_PRIVATE_API
libQt6Quick3DRuntimeRender.so.6:_ZN14QSSGRenderSkinD1Ev@@Qt_6_PRIVATE_API
libQt6Quick3DRuntimeRender.so.6:_ZN14QSSGRenderSkinD2Ev@@Qt_6_PRIVATE_API
libQt6Quick3DRuntimeRender.so.6:_ZN14QSSGRhiContext12dummyTextureE6QFlagsIN11QRhiTexture4FlagEEP23QRhiResourceUpdateBatchRK5QSizeRK6QColor@@Qt_6_PRIVATE_API
libQt6Quick3DRuntimeRender.so.6:_ZN14QSSGRhiContext21checkAndAdjustForNPoTEP11QRhiTextureP25QSSGRhiSamplerDescription@@Qt_6_PRIVATE_API
libQt6Quick3DRuntimeRender.so.6:_ZN14QSSGRhiContext7samplerERK25QSSGRhiSamplerDescription@@Qt_6_PRIVATE_API
libQt6Quick3DRuntimeRender.so.6:_ZN14QSSGRhiContextC1EP4QRhi@@Qt_6_PRIVATE_API
libQt6Quick3DRuntimeRender.so.6:_ZN14QSSGRhiContextC2EP4QRhi@@Qt_6_PRIVATE_API
libQt6Quick3DRuntimeRender.so.6:_ZN14QSSGRhiContextD1Ev@@Qt_6_PRIVATE_API
libQt6Quick3DRuntimeRender.so.6:_ZN14QSSGRhiContextD2Ev@@Qt_6_PRIVATE_API
libQt6Quick3DRuntimeRender.so.6:_ZN15QSSGRenderImage10clearDirtyEv@@Qt_6_PRIVATE_API
libQt6Quick3DRuntimeRender.so.6:_ZN15QSSGRenderImage25calculateTextureTransformEv@@Qt_6_PRIVATE_API
libQt6Quick3DRuntimeRender.so.6:_ZN15QSSGRenderImageC1EN21QSSGRenderGraphObject4TypeE@@Qt_6_PRIVATE_API
libQt6Quick3DRuntimeRender.so.6:_ZN15QSSGRenderImageC2EN21QSSGRenderGraphObject4TypeE@@Qt_6_PRIVATE_API
libQt6Quick3DRuntimeRender.so.6:_ZN15QSSGRenderImageD0Ev@@Qt_6_PRIVATE_API
libQt6Quick3DRuntimeRender.so.6:_ZN15QSSGRenderImageD1Ev@@Qt_6_PRIVATE_API
libQt6Quick3DRuntimeRender.so.6:_ZN15QSSGRenderImageD2Ev@@Qt_6_PRIVATE_API
libQt6Quick3DRuntimeRender.so.6:_ZN15QSSGRenderJointC1Ev@@Qt_6_PRIVATE_API
libQt6Quick3DRuntimeRender.so.6:_ZN15QSSGRenderJointC2Ev@@Qt_6_PRIVATE_API
libQt6Quick3DRuntimeRender.so.6:_ZN15QSSGRenderJointD0Ev@@Qt_6_PRIVATE_API
libQt6Quick3DRuntimeRender.so.6:_ZN15QSSGRenderJointD1Ev@@Qt_6_PRIVATE_API
libQt6Quick3DRuntimeRender.so.6:_ZN15QSSGRenderJointD2Ev@@Qt_6_PRIVATE_API
libQt6Quick3DRuntimeRender.so.6:_ZN15QSSGRenderLayer14setImportSceneER14QSSGRenderNode@@Qt_6_PRIVATE_API
libQt6Quick3DRuntimeRender.so.6:_ZN15QSSGRenderLayer17removeImportSceneER14QSSGRenderNode@@Qt_6_PRIVATE_API
libQt6Quick3DRuntimeRender.so.6:_ZN15QSSGRenderLayer19setProbeOrientationERK9QVector3D@@Qt_6_PRIVATE_API
libQt6Quick3DRuntimeRender.so.6:_ZN15QSSGRenderLayer9addEffectER16QSSGRenderEffect@@Qt_6_PRIVATE_API
libQt6Quick3DRuntimeRender.so.6:_ZN15QSSGRenderLayerC1Ev@@Qt_6_PRIVATE_API
libQt6Quick3DRuntimeRender.so.6:_ZN15QSSGRenderLayerC2Ev@@Qt_6_PRIVATE_API
libQt6Quick3DRuntimeRender.so.6:_ZN15QSSGRenderLayerD0Ev@@Qt_6_PRIVATE_API
libQt6Quick3DRuntimeRender.so.6:_ZN15QSSGRenderLayerD1Ev@@Qt_6_PRIVATE_API
libQt6Quick3DRuntimeRender.so.6:_ZN15QSSGRenderLayerD2Ev@@Qt_6_PRIVATE_API
libQt6Quick3DRuntimeRender.so.6:_ZN15QSSGRenderLight10clearDirtyENS_9DirtyFlagE@@Qt_6_PRIVATE_API
libQt6Quick3DRuntimeRender.so.6:_ZN15QSSGRenderLight9markDirtyENS_9DirtyFlagE@@Qt_6_PRIVATE_API
libQt6Quick3DRuntimeRender.so.6:_ZN15QSSGRenderLightC1EN21QSSGRenderGraphObject4TypeE@@Qt_6_PRIVATE_API
libQt6Quick3DRuntimeRender.so.6:_ZN15QSSGRenderLightC2EN21QSSGRenderGraphObject4TypeE@@Qt_6_PRIVATE_API
libQt6Quick3DRuntimeRender.so.6:_ZN15QSSGRenderModelC1Ev@@Qt_6_PRIVATE_API
libQt6Quick3DRuntimeRender.so.6:_ZN15QSSGRenderModelC2Ev@@Qt_6_PRIVATE_API
libQt6Quick3DRuntimeRender.so.6:_ZN15QSSGShaderCache13compileForRhiERK10QByteArrayS2_S2_RK18QSSGShaderFeatures6QFlagsIN21QSSGRhiShaderPipeline9StageFlagEE@@Qt_6_PRIVATE_API
libQt6Quick3DRuntimeRender.so.6:_ZN15QSSGShaderCache14resourceFolderEv@@Qt_6_PRIVATE_API
libQt6Quick3DRuntimeRender.so.6:_ZN15QSSGShaderCache17loadBuiltinForRhiERK10QByteArray@@Qt_6_PRIVATE_API
libQt6Quick3DRuntimeRender.so.6:_ZN15QSSGShaderCache20shaderCollectionFileEv@@Qt_6_PRIVATE_API
libQt6Quick3DRuntimeRender.so.6:_ZN15QSSGShaderCache21addShaderPreprocessorER10QByteArrayRKS0_NS_10ShaderTypeERK18QSSGShaderFeatures@@Qt_6_PRIVATE_API
libQt6Quick3DRuntimeRender.so.6:_ZN15QSSGShaderCache22releaseCachedResourcesEv@@Qt_6_PRIVATE_API
libQt6Quick3DRuntimeRender.so.6:_ZN15QSSGShaderCache23tryGetRhiShaderPipelineERK10QByteArrayRK18QSSGShaderFeatures@@Qt_6_PRIVATE_API
libQt6Quick3DRuntimeRender.so.6:_ZN15QSSGShaderCache27newPipelineFromPregeneratedERK10QByteArrayRK18QSSGShaderFeaturesN14QQsbCollection5EntryERK21QSSGRenderGraphObject6QFlagsIN21QSSGRhiShaderPipeline9StageFlagEE@@Qt_6_PRIVATE_API
libQt6Quick3DRuntimeRender.so.6:_ZN15QSSGShaderCache33tryNewPipelineFromPersistentCacheERK10QByteArrayS2_RK18QSSGShaderFeatures6QFlagsIN21QSSGRhiShaderPipeline9StageFlagEE@@Qt_6_PRIVATE_API
libQt6Quick3DRuntimeRender.so.6:_ZN15QSSGShaderCacheC1ER14QSSGRhiContextPFvP12QShaderBakerP4QRhiE@@Qt_6_PRIVATE_API
libQt6Quick3DRuntimeRender.so.6:_ZN15QSSGShaderCacheC2ER14QSSGRhiContextPFvP12QShaderBakerP4QRhiE@@Qt_6_PRIVATE_API
libQt6Quick3DRuntimeRender.so.6:_ZN15QSSGShaderCacheD1Ev@@Qt_6_PRIVATE_API
libQt6Quick3DRuntimeRender.so.6:_ZN15QSSGShaderCacheD2Ev@@Qt_6_PRIVATE_API
libQt6Quick3DRuntimeRender.so.6:_ZN16QSSGModelHelpers15getLocalOpacityERK13QSSGFrameData10QSSGNodeId@@Qt_6_PRIVATE_API
libQt6Quick3DRuntimeRender.so.6:_ZN16QSSGModelHelpers16getGlobalOpacityERK13QSSGFrameData10QSSGNodeId17QSSGPrepContextId@@Qt_6_PRIVATE_API
libQt6Quick3DRuntimeRender.so.6:_ZN16QSSGModelHelpers16getGlobalOpacityERK13QSSGFrameData10QSSGNodeId@@Qt_6_PRIVATE_API
libQt6Quick3DRuntimeRender.so.6:_ZN16QSSGModelHelpers16setGlobalOpacityERK13QSSGFrameData17QSSGRenderablesId10QSSGNodeIdf@@Qt_6_PRIVATE_API
libQt6Quick3DRuntimeRender.so.6:_ZN16QSSGModelHelpers17getLocalTransformERK13QSSGFrameData10QSSGNodeId@@Qt_6_PRIVATE_API
libQt6Quick3DRuntimeRender.so.6:_ZN16QSSGModelHelpers17setModelMaterialsERK13QSSGFrameData17QSSGRenderablesId10QSSGNodeId5QListI14QSSGResourceIdE@@Qt_6_PRIVATE_API
libQt6Quick3DRuntimeRender.so.6:_ZN16QSSGModelHelpers17setModelMaterialsERK13QSSGFrameData17QSSGRenderablesId5QListI14QSSGResourceIdE@@Qt_6_PRIVATE_API
libQt6Quick3DRuntimeRender.so.6:_ZN16QSSGModelHelpers18getGlobalTransformERK13QSSGFrameData10QSSGNodeId17QSSGPrepContextId@@Qt_6_PRIVATE_API
libQt6Quick3DRuntimeRender.so.6:_ZN16QSSGModelHelpers18setGlobalTransformERK13QSSGFrameData17QSSGRenderablesId10QSSGNodeIdRK10QMatrix4x4@@Qt_6_PRIVATE_API
libQt6Quick3DRuntimeRender.so.6:_ZN16QSSGRenderCamera10clearDirtyENS_9DirtyFlagE@@Qt_6_PRIVATE_API
libQt6Quick3DRuntimeRender.so.6:_ZN16QSSGRenderCamera19calculateProjectionERK6QRectF@@Qt_6_PRIVATE_API
libQt6Quick3DRuntimeRender.so.6:_ZN16QSSGRenderCamera19computeFrustumOrthoERK6QRectF@@Qt_6_PRIVATE_API
libQt6Quick3DRuntimeRender.so.6:_ZN16QSSGRenderCamera20computeCustomFrustumERK6QRectF@@Qt_6_PRIVATE_API
libQt6Quick3DRuntimeRender.so.6:_ZN16QSSGRenderCamera24calculateGlobalVariablesERK6QRectF@@Qt_6_PRIVATE_API
libQt6Quick3DRuntimeRender.so.6:_ZN16QSSGRenderCamera25computeFrustumPerspectiveERK6QRectF@@Qt_6_PRIVATE_API
libQt6Quick3DRuntimeRender.so.6:_ZN16QSSGRenderCamera29calculateViewProjectionMatrixERK10QMatrix4x4S2_RS0_@@Qt_6_PRIVATE_API
libQt6Quick3DRuntimeRender.so.6:_ZN16QSSGRenderCamera6lookAtERK9QVector3DS2_S2_S2_@@Qt_6_PRIVATE_API
libQt6Quick3DRuntimeRender.so.6:_ZN16QSSGRenderCamera9markDirtyENS_9DirtyFlagE@@Qt_6_PRIVATE_API
libQt6Quick3DRuntimeRender.so.6:_ZN16QSSGRenderCameraC1EN21QSSGRenderGraphObject4TypeE@@Qt_6_PRIVATE_API
libQt6Quick3DRuntimeRender.so.6:_ZN16QSSGRenderCameraC2EN21QSSGRenderGraphObject4TypeE@@Qt_6_PRIVATE_API
libQt6Quick3DRuntimeRender.so.6:_ZN16QSSGRenderEffect10clearDirtyEv@@Qt_6_PRIVATE_API
libQt6Quick3DRuntimeRender.so.6:_ZN16QSSGRenderEffect13resetCommandsEv@@Qt_6_PRIVATE_API
libQt6Quick3DRuntimeRender.so.6:_ZN16QSSGRenderEffect15finalizeShadersERK15QSSGRenderLayerP26QSSGRenderContextInterface@@Qt_6_PRIVATE_API
libQt6Quick3DRuntimeRender.so.6:_ZN16QSSGRenderEffect9markDirtyEv@@Qt_6_PRIVATE_API
libQt6Quick3DRuntimeRender.so.6:_ZN16QSSGRenderEffectC1Ev@@Qt_6_PRIVATE_API
libQt6Quick3DRuntimeRender.so.6:_ZN16QSSGRenderEffectC2Ev@@Qt_6_PRIVATE_API
libQt6Quick3DRuntimeRender.so.6:_ZN16QSSGRenderEffectD0Ev@@Qt_6_PRIVATE_API
libQt6Quick3DRuntimeRender.so.6:_ZN16QSSGRenderEffectD1Ev@@Qt_6_PRIVATE_API
libQt6Quick3DRuntimeRender.so.6:_ZN16QSSGRenderEffectD2Ev@@Qt_6_PRIVATE_API
libQt6Quick3DRuntimeRender.so.6:_ZN16QSSGRenderItem2DC1Ev@@Qt_6_PRIVATE_API
libQt6Quick3DRuntimeRender.so.6:_ZN16QSSGRenderItem2DC2Ev@@Qt_6_PRIVATE_API
libQt6Quick3DRuntimeRender.so.6:_ZN16QSSGRenderItem2DD0Ev@@Qt_6_PRIVATE_API
libQt6Quick3DRuntimeRender.so.6:_ZN16QSSGRenderItem2DD1Ev@@Qt_6_PRIVATE_API
libQt6Quick3DRuntimeRender.so.6:_ZN16QSSGRenderItem2DD2Ev@@Qt_6_PRIVATE_API
libQt6Quick3DRuntimeRender.so.6:_ZN17QSSGBufferManager11loadMeshBVHEP18QSSGRenderGeometry@@Qt_6_PRIVATE_API
libQt6Quick3DRuntimeRender.so.6:_ZN17QSSGBufferManager11loadMeshBVHERK14QSSGRenderPath@@Qt_6_PRIVATE_API
libQt6Quick3DRuntimeRender.so.6:_ZN17QSSGBufferManager11loadSkinmapEP21QSSGRenderTextureData@@Qt_6_PRIVATE_API
libQt6Quick3DRuntimeRender.so.6:_ZN17QSSGBufferManager11releaseMeshERK14QSSGRenderPath@@Qt_6_PRIVATE_API
libQt6Quick3DRuntimeRender.so.6:_ZN17QSSGBufferManager11toRhiFormatE23QSSGRenderTextureFormat@@Qt_6_PRIVATE_API
libQt6Quick3DRuntimeRender.so.6:_ZN17QSSGBufferManager12loadLightmapERK15QSSGRenderModel@@Qt_6_PRIVATE_API
libQt6Quick3DRuntimeRender.so.6:_ZN17QSSGBufferManager12loadMeshDataEPK18QSSGRenderGeometry@@Qt_6_PRIVATE_API
libQt6Quick3DRuntimeRender.so.6:_ZN17QSSGBufferManager12loadMeshDataERK14QSSGRenderPath@@Qt_6_PRIVATE_API
libQt6Quick3DRuntimeRender.so.6:_ZN17QSSGBufferManager12releaseImageERKNS_13ImageCacheKeyE@@Qt_6_PRIVATE_API
libQt6Quick3DRuntimeRender.so.6:_ZN17QSSGBufferManager13loadPrimitiveERK7QString@@Qt_6_PRIVATE_API
libQt6Quick3DRuntimeRender.so.6:_ZN17QSSGBufferManager13primitivePathERK7QString@@Qt_6_PRIVATE_API
libQt6Quick3DRuntimeRender.so.6:_ZN17QSSGBufferManager14loadRenderMeshEP18QSSGRenderGeometry25QSSGMeshProcessingOptions@@Qt_6_PRIVATE_API
libQt6Quick3DRuntimeRender.so.6:_ZN17QSSGBufferManager14loadRenderMeshERK14QSSGRenderPath25QSSGMeshProcessingOptions@@Qt_6_PRIVATE_API
libQt6Quick3DRuntimeRender.so.6:_ZN17QSSGBufferManager15loadRenderImageEPK15QSSGRenderImageNS_7MipModeE6QFlagsINS_19LoadRenderImageFlagEE@@Qt_6_PRIVATE_API
libQt6Quick3DRuntimeRender.so.6:_ZN17QSSGBufferManager15loadTextureDataEP21QSSGRenderTextureDataNS_7MipModeE@@Qt_6_PRIVATE_API
libQt6Quick3DRuntimeRender.so.6:_ZN17QSSGBufferManager15meshUpdateMutexEv@@Qt_6_PRIVATE_API
libQt6Quick3DRuntimeRender.so.6:_ZN17QSSGBufferManager15releaseGeometryEP18QSSGRenderGeometry@@Qt_6_PRIVATE_API
libQt6Quick3DRuntimeRender.so.6:_ZN17QSSGBufferManager16createRenderMeshERKN8QSSGMesh4MeshERK7QString@@Qt_6_PRIVATE_API
libQt6Quick3DRuntimeRender.so.6:_ZN17QSSGBufferManager16createRhiTextureER22QSSGRenderImageTexturePK17QSSGLoadedTextureNS_7MipModeE6QFlagsINS_20CreateRhiTextureFlagEERK7QString@@Qt_6_PRIVATE_API
libQt6Quick3DRuntimeRender.so.6:_ZN17QSSGBufferManager16registerMeshDataERK7QStringRK5QListIN8QSSGMesh4MeshEE@@Qt_6_PRIVATE_API
libQt6Quick3DRuntimeRender.so.6:_ZN17QSSGBufferManager18decreaseMemoryStatEP11QRhiTexture@@Qt_6_PRIVATE_API
libQt6Quick3DRuntimeRender.so.6:_ZN17QSSGBufferManager18decreaseMemoryStatEP14QSSGRenderMesh@@Qt_6_PRIVATE_API
libQt6Quick3DRuntimeRender.so.6:_ZN17QSSGBufferManager18increaseMemoryStatEP11QRhiTexture@@Qt_6_PRIVATE_API
libQt6Quick3DRuntimeRender.so.6:_ZN17QSSGBufferManager18increaseMemoryStatEP14QSSGRenderMesh@@Qt_6_PRIVATE_API
libQt6Quick3DRuntimeRender.so.6:_ZN17QSSGBufferManager18releaseTextureDataEPK21QSSGRenderTextureData@@Qt_6_PRIVATE_API
libQt6Quick3DRuntimeRender.so.6:_ZN17QSSGBufferManager18releaseTextureDataERKNS_19CustomImageCacheKeyE@@Qt_6_PRIVATE_API
libQt6Quick3DRuntimeRender.so.6:_ZN17QSSGBufferManager18resetUsageCountersEjP15QSSGRenderLayer@@Qt_6_PRIVATE_API
libQt6Quick3DRuntimeRender.so.6:_ZN17QSSGBufferManager18unregisterMeshDataERK7QString@@Qt_6_PRIVATE_API
libQt6Quick3DRuntimeRender.so.6:_ZN17QSSGBufferManager20createEnvironmentMapEPK17QSSGLoadedTextureP22QSSGRenderImageTextureRK7QString@@Qt_6_PRIVATE_API
libQt6Quick3DRuntimeRender.so.6:_ZN17QSSGBufferManager21meshBufferUpdateBatchEv@@Qt_6_PRIVATE_API
libQt6Quick3DRuntimeRender.so.6:_ZN17QSSGBufferManager21processResourceLoaderEPK24QSSGRenderResourceLoader@@Qt_6_PRIVATE_API
libQt6Quick3DRuntimeRender.so.6:_ZN17QSSGBufferManager21runtimeMeshSourceNameERK7QStringx@@Qt_6_PRIVATE_API
libQt6Quick3DRuntimeRender.so.6:_ZN17QSSGBufferManager22releaseCachedResourcesEv@@Qt_6_PRIVATE_API
libQt6Quick3DRuntimeRender.so.6:_ZN17QSSGBufferManager22releaseExtensionResultERK19QSSGRenderExtension@@Qt_6_PRIVATE_API
libQt6Quick3DRuntimeRender.so.6:_ZN17QSSGBufferManager23registerExtensionResultERK19QSSGRenderExtensionP11QRhiTexture@@Qt_6_PRIVATE_API
libQt6Quick3DRuntimeRender.so.6:_ZN17QSSGBufferManager24releaseResourcesForLayerEP15QSSGRenderLayer@@Qt_6_PRIVATE_API
libQt6Quick3DRuntimeRender.so.6:_ZN17QSSGBufferManager25setRenderContextInterfaceEP26QSSGRenderContextInterface@@Qt_6_PRIVATE_API
libQt6Quick3DRuntimeRender.so.6:_ZN17QSSGBufferManager26cleanupUnreferencedBuffersEjP15QSSGRenderLayer@@Qt_6_PRIVATE_API
libQt6Quick3DRuntimeRender.so.6:_ZN17QSSGBufferManager27commitBufferResourceUpdatesEv@@Qt_6_PRIVATE_API
libQt6Quick3DRuntimeRender.so.6:_ZN17QSSGBufferManager5clearEv@@Qt_6_PRIVATE_API
libQt6Quick3DRuntimeRender.so.6:_ZN17QSSGBufferManager8loadMeshEPK15QSSGRenderModel@@Qt_6_PRIVATE_API
libQt6Quick3DRuntimeRender.so.6:_ZN17QSSGBufferManagerC1Ev@@Qt_6_PRIVATE_API
libQt6Quick3DRuntimeRender.so.6:_ZN17QSSGBufferManagerC2Ev@@Qt_6_PRIVATE_API
libQt6Quick3DRuntimeRender.so.6:_ZN17QSSGBufferManagerD1Ev@@Qt_6_PRIVATE_API
libQt6Quick3DRuntimeRender.so.6:_ZN17QSSGBufferManagerD2Ev@@Qt_6_PRIVATE_API
libQt6Quick3DRuntimeRender.so.6:_ZN17QSSGCameraHelpers23getViewProjectionMatrixE12QSSGCameraIdPK10QMatrix4x4@@Qt_6_PRIVATE_API
libQt6Quick3DRuntimeRender.so.6:_ZN17QSSGLoadedTexture10loadQImageERK7QStringi@@Qt_6_PRIVATE_API
libQt6Quick3DRuntimeRender.so.6:_ZN17QSSGLoadedTexture12loadHdrImageERK14QSharedPointerI9QIODeviceERK23QSSGRenderTextureFormat@@Qt_6_PRIVATE_API
libQt6Quick3DRuntimeRender.so.6:_ZN17QSSGLoadedTexture15loadTextureDataEP21QSSGRenderTextureData@@Qt_6_PRIVATE_API
libQt6Quick3DRuntimeRender.so.6:_ZN17QSSGLoadedTexture19loadCompressedImageERK7QString@@Qt_6_PRIVATE_API
libQt6Quick3DRuntimeRender.so.6:_ZN17QSSGLoadedTexture4loadERK7QStringRK23QSSGRenderTextureFormatb@@Qt_6_PRIVATE_API
libQt6Quick3DRuntimeRender.so.6:_ZN17QSSGLoadedTextureD1Ev@@Qt_6_PRIVATE_API
libQt6Quick3DRuntimeRender.so.6:_ZN17QSSGLoadedTextureD2Ev@@Qt_6_PRIVATE_API
libQt6Quick3DRuntimeRender.so.6:_ZN17QSSGRenderHelpers16prepareForRenderERK13QSSGFrameDataRK19QSSGRenderExtension12QSSGCameraIdj@@Qt_6_PRIVATE_API
libQt6Quick3DRuntimeRender.so.6:_ZN17QSSGRenderHelpers17createRenderablesERK13QSSGFrameData17QSSGPrepContextIdRK5QListI10QSSGNodeIdE6QFlagsINS_10CreateFlagEE@@Qt_6_PRIVATE_API
libQt6Quick3DRuntimeRender.so.6:_ZN17QSSGRenderHelpers17renderRenderablesERK13QSSGFrameData16QSSGPrepResultId@@Qt_6_PRIVATE_API
libQt6Quick3DRuntimeRender.so.6:_ZN17QSSGRenderHelpers18prepareRenderablesERK13QSSGFrameData16QSSGPrepResultIdP24QRhiRenderPassDescriptorR28QSSGRhiGraphicsPipelineState6QFlagsI21QSSGRenderablesFilterE@@Qt_6_PRIVATE_API
libQt6Quick3DRuntimeRender.so.6:_ZN17QSSGRenderHelpers6commitERK13QSSGFrameData17QSSGPrepContextId17QSSGRenderablesIdf@@Qt_6_PRIVATE_API
libQt6Quick3DRuntimeRender.so.6:_ZN17QSSGRenderHelpersC1Ev@@Qt_6_PRIVATE_API
libQt6Quick3DRuntimeRender.so.6:_ZN17QSSGRenderHelpersC2Ev@@Qt_6_PRIVATE_API
libQt6Quick3DRuntimeRender.so.6:_ZN18QSSGParticleBuffer10resizeLineEii@@Qt_6_PRIVATE_API
libQt6Quick3DRuntimeRender.so.6:_ZN18QSSGParticleBuffer6resizeEii@@Qt_6_PRIVATE_API
libQt6Quick3DRuntimeRender.so.6:_ZN18QSSGParticleBuffer7pointerEv@@Qt_6_PRIVATE_API
libQt6Quick3DRuntimeRender.so.6:_ZN18QSSGParticleBuffer9setBoundsERK11QSSGBounds3@@Qt_6_PRIVATE_API
libQt6Quick3DRuntimeRender.so.6:_ZN18QSSGRenderGeometry11clearTargetEv@@Qt_6_PRIVATE_API
libQt6Quick3DRuntimeRender.so.6:_ZN18QSSGRenderGeometry11indexBufferEv@@Qt_6_PRIVATE_API
libQt6Quick3DRuntimeRender.so.6:_ZN18QSSGRenderGeometry12addAttributeEN8QSSGMesh15RuntimeMeshData9Attribute8SemanticEi23QSSGRenderComponentType@@Qt_6_PRIVATE_API
libQt6Quick3DRuntimeRender.so.6:_ZN18QSSGRenderGeometry12addAttributeERKNS_9AttributeE@@Qt_6_PRIVATE_API
libQt6Quick3DRuntimeRender.so.6:_ZN18QSSGRenderGeometry12setIndexDataERK10QByteArray@@Qt_6_PRIVATE_API
libQt6Quick3DRuntimeRender.so.6:_ZN18QSSGRenderGeometry12vertexBufferEv@@Qt_6_PRIVATE_API
libQt6Quick3DRuntimeRender.so.6:_ZN18QSSGRenderGeometry13setTargetDataERK10QByteArray@@Qt_6_PRIVATE_API
libQt6Quick3DRuntimeRender.so.6:_ZN18QSSGRenderGeometry13setVertexDataERK10QByteArray@@Qt_6_PRIVATE_API
libQt6Quick3DRuntimeRender.so.6:_ZN18QSSGRenderGeometry15clearAttributesEv@@Qt_6_PRIVATE_API
libQt6Quick3DRuntimeRender.so.6:_ZN18QSSGRenderGeometry16setPrimitiveTypeE18QSSGRenderDrawMode@@Qt_6_PRIVATE_API
libQt6Quick3DRuntimeRender.so.6:_ZN18QSSGRenderGeometry18addTargetAttributeERKNS_15TargetAttributeE@@Qt_6_PRIVATE_API
libQt6Quick3DRuntimeRender.so.6:_ZN18QSSGRenderGeometry18addTargetAttributeEjN8QSSGMesh15RuntimeMeshData9Attribute8SemanticEii@@Qt_6_PRIVATE_API
libQt6Quick3DRuntimeRender.so.6:_ZN18QSSGRenderGeometry19clearVertexAndIndexEv@@Qt_6_PRIVATE_API
libQt6Quick3DRuntimeRender.so.6:_ZN18QSSGRenderGeometry5clearEv@@Qt_6_PRIVATE_API
libQt6Quick3DRuntimeRender.so.6:_ZN18QSSGRenderGeometry9addSubsetEjjRK9QVector3DS2_RK7QString@@Qt_6_PRIVATE_API
libQt6Quick3DRuntimeRender.so.6:_ZN18QSSGRenderGeometry9markDirtyEv@@Qt_6_PRIVATE_API
libQt6Quick3DRuntimeRender.so.6:_ZN18QSSGRenderGeometry9setBoundsERK9QVector3DS2_@@Qt_6_PRIVATE_API
libQt6Quick3DRuntimeRender.so.6:_ZN18QSSGRenderGeometry9setStrideEi@@Qt_6_PRIVATE_API
libQt6Quick3DRuntimeRender.so.6:_ZN18QSSGRenderGeometryC1Ev@@Qt_6_PRIVATE_API
libQt6Quick3DRuntimeRender.so.6:_ZN18QSSGRenderGeometryC2Ev@@Qt_6_PRIVATE_API
libQt6Quick3DRuntimeRender.so.6:_ZN18QSSGRenderGeometryD0Ev@@Qt_6_PRIVATE_API
libQt6Quick3DRuntimeRender.so.6:_ZN18QSSGRenderGeometryD1Ev@@Qt_6_PRIVATE_API
libQt6Quick3DRuntimeRender.so.6:_ZN18QSSGRenderGeometryD2Ev@@Qt_6_PRIVATE_API
libQt6Quick3DRuntimeRender.so.6:_ZN18QSSGRenderSkeletonC1Ev@@Qt_6_PRIVATE_API
libQt6Quick3DRuntimeRender.so.6:_ZN18QSSGRenderSkeletonC2Ev@@Qt_6_PRIVATE_API
libQt6Quick3DRuntimeRender.so.6:_ZN18QSSGRenderSkeletonD0Ev@@Qt_6_PRIVATE_API
libQt6Quick3DRuntimeRender.so.6:_ZN18QSSGRenderSkeletonD1Ev@@Qt_6_PRIVATE_API
libQt6Quick3DRuntimeRender.so.6:_ZN18QSSGRenderSkeletonD2Ev@@Qt_6_PRIVATE_API
libQt6Quick3DRuntimeRender.so.6:_ZN18QSSGShaderFeatures14asDefineStringENS_7FeatureE@@Qt_6_PRIVATE_API
libQt6Quick3DRuntimeRender.so.6:_ZN18QSSGShaderFeatures3setENS_7FeatureEb@@Qt_6_PRIVATE_API
libQt6Quick3DRuntimeRender.so.6:_ZN18QSSGShaderFeatures9fromIndexEj@@Qt_6_PRIVATE_API
libQt6Quick3DRuntimeRender.so.6:_ZN19QSSGClippingFrustumC1ERK10QMatrix4x4RK13QSSGClipPlane@@Qt_6_PRIVATE_API
libQt6Quick3DRuntimeRender.so.6:_ZN19QSSGClippingFrustumC2ERK10QMatrix4x4RK13QSSGClipPlane@@Qt_6_PRIVATE_API
libQt6Quick3DRuntimeRender.so.6:_ZN19QSSGDebugDrawSystem10drawBoundsERK11QSSGBounds3RK6QColorb@@Qt_6_PRIVATE_API
libQt6Quick3DRuntimeRender.so.6:_ZN19QSSGDebugDrawSystem10setEnabledEb@@Qt_6_PRIVATE_API
libQt6Quick3DRuntimeRender.so.6:_ZN19QSSGDebugDrawSystem11generateBoxERKNS_10BoundsDataER5QListINS_10VertexDataEERS3_IjE@@Qt_6_PRIVATE_API
libQt6Quick3DRuntimeRender.so.6:_ZN19QSSGDebugDrawSystem12debugNormalsER17QSSGBufferManagerRK16QSSGModelContextRK16QSSGRenderSubsetjf@@Qt_6_PRIVATE_API
libQt6Quick3DRuntimeRender.so.6:_ZN19QSSGDebugDrawSystem12generateLineERKNS_8LineDataER5QListINS_10VertexDataEERS3_IjE@@Qt_6_PRIVATE_API
libQt6Quick3DRuntimeRender.so.6:_ZN19QSSGDebugDrawSystem15prepareGeometryEP14QSSGRhiContextP23QRhiResourceUpdateBatch@@Qt_6_PRIVATE_API
libQt6Quick3DRuntimeRender.so.6:_ZN19QSSGDebugDrawSystem18levelOfDetailColorEj@@Qt_6_PRIVATE_API
libQt6Quick3DRuntimeRender.so.6:_ZN19QSSGDebugDrawSystem24recordRenderDebugObjectsEP14QSSGRhiContextP28QSSGRhiGraphicsPipelineStateP26QRhiShaderResourceBindingsP24QRhiRenderPassDescriptor@@Qt_6_PRIVATE_API
libQt6Quick3DRuntimeRender.so.6:_ZN19QSSGDebugDrawSystem8drawLineERK9QVector3DS2_RK6QColorb@@Qt_6_PRIVATE_API
libQt6Quick3DRuntimeRender.so.6:_ZN19QSSGDebugDrawSystem9drawPointERK9QVector3DRK6QColorb@@Qt_6_PRIVATE_API
libQt6Quick3DRuntimeRender.so.6:_ZN19QSSGDebugDrawSystemC1Ev@@Qt_6_PRIVATE_API
libQt6Quick3DRuntimeRender.so.6:_ZN19QSSGDebugDrawSystemC2Ev@@Qt_6_PRIVATE_API
libQt6Quick3DRuntimeRender.so.6:_ZN19QSSGDebugDrawSystemD1Ev@@Qt_6_PRIVATE_API
libQt6Quick3DRuntimeRender.so.6:_ZN19QSSGDebugDrawSystemD2Ev@@Qt_6_PRIVATE_API
libQt6Quick3DRuntimeRender.so.6:_ZN19QSSGLayerRenderData12getFrameDataEv@@Qt_6_PRIVATE_API
libQt6Quick3DRuntimeRender.so.6:_ZN19QSSGLayerRenderData13resetForFrameEv@@Qt_6_PRIVATE_API
libQt6Quick3DRuntimeRender.so.6:_ZN19QSSGLayerRenderData14frustumCullingERK19QSSGClippingFrustumRK5QListI26QSSGRenderableObjectHandleERS5_@@Qt_6_PRIVATE_API
libQt6Quick3DRuntimeRender.so.6:_ZN19QSSGLayerRenderData16getGlobalOpacityE17QSSGPrepContextIdRK15QSSGRenderModel@@Qt_6_PRIVATE_API
libQt6Quick3DRuntimeRender.so.6:_ZN19QSSGLayerRenderData16prepareForRenderEv@@Qt_6_PRIVATE_API
libQt6Quick3DRuntimeRender.so.6:_ZN19QSSGLayerRenderData16setGlobalOpacityE17QSSGRenderablesIdRK15QSSGRenderModelf@@Qt_6_PRIVATE_API
libQt6Quick3DRuntimeRender.so.6:_ZN19QSSGLayerRenderData17createRenderablesE17QSSGPrepContextIdRK5QListI10QSSGNodeIdE6QFlagsIN17QSSGRenderHelpers10CreateFlagEE@@Qt_6_PRIVATE_API
libQt6Quick3DRuntimeRender.so.6:_ZN19QSSGLayerRenderData17maybeBakeLightmapEv@@Qt_6_PRIVATE_API
libQt6Quick3DRuntimeRender.so.6:_ZN19QSSGLayerRenderData17prepareInstancingEP14QSSGRhiContextP20QSSGSubsetRenderableRK9QVector3DS6_ff@@Qt_6_PRIVATE_API
libQt6Quick3DRuntimeRender.so.6:_ZN19QSSGLayerRenderData17renderRenderablesER26QSSGRenderContextInterface16QSSGPrepResultId@@Qt_6_PRIVATE_API
libQt6Quick3DRuntimeRender.so.6:_ZN19QSSGLayerRenderData17setBonemapTextureERK16QSSGModelContextP11QRhiTexture@@Qt_6_PRIVATE_API
libQt6Quick3DRuntimeRender.so.6:_ZN19QSSGLayerRenderData17setModelMaterialsE17QSSGRenderablesIdRK15QSSGRenderModelRK5QListI14QSSGResourceIdE@@Qt_6_PRIVATE_API
libQt6Quick3DRuntimeRender.so.6:_ZN19QSSGLayerRenderData17setModelMaterialsE17QSSGRenderablesIdRK5QListI14QSSGResourceIdE@@Qt_6_PRIVATE_API
libQt6Quick3DRuntimeRender.so.6:_ZN19QSSGLayerRenderData18getGlobalTransformE17QSSGPrepContextIdRK15QSSGRenderModel@@Qt_6_PRIVATE_API
libQt6Quick3DRuntimeRender.so.6:_ZN19QSSGLayerRenderData18prepareModelMeshesERK26QSSGRenderContextInterfaceR5QListI23QSSGRenderableNodeEntryEb@@Qt_6_PRIVATE_API
libQt6Quick3DRuntimeRender.so.6:_ZN19QSSGLayerRenderData18prepareRenderablesER26QSSGRenderContextInterface16QSSGPrepResultIdP24QRhiRenderPassDescriptorRK28QSSGRhiGraphicsPipelineState6QFlagsI21QSSGRenderablesFilterE@@Qt_6_PRIVATE_API
libQt6Quick3DRuntimeRender.so.6:_ZN19QSSGLayerRenderData18setGlobalTransformE17QSSGRenderablesIdRK15QSSGRenderModelRK10QMatrix4x4@@Qt_6_PRIVATE_API
libQt6Quick3DRuntimeRender.so.6:_ZN19QSSGLayerRenderData18setLightmapTextureERK16QSSGModelContextP11QRhiTexture@@Qt_6_PRIVATE_API
libQt6Quick3DRuntimeRender.so.6:_ZN19QSSGLayerRenderData19generateLightingKeyEN25QSSGRenderDefaultMaterial16MaterialLightingERK12QSSGDataViewI15QSSGShaderLightEb@@Qt_6_PRIVATE_API
libQt6Quick3DRuntimeRender.so.6:_ZN19QSSGLayerRenderData19getCachedCameraDataEv@@Qt_6_PRIVATE_API
libQt6Quick3DRuntimeRender.so.6:_ZN19QSSGLayerRenderData19getCameraRenderDataEPK16QSSGRenderCamera@@Qt_6_PRIVATE_API
libQt6Quick3DRuntimeRender.so.6:_ZN19QSSGLayerRenderData20frustumCullingInlineERK19QSSGClippingFrustumR5QListI26QSSGRenderableObjectHandleE@@Qt_6_PRIVATE_API
libQt6Quick3DRuntimeRender.so.6:_ZN19QSSGLayerRenderData20getRenderableItem2DsEv@@Qt_6_PRIVATE_API
libQt6Quick3DRuntimeRender.so.6:_ZN19QSSGLayerRenderData21prepareImageForRenderER15QSSGRenderImageN19QSSGRenderableImage4TypeERPS2_S5_R25QSSGRenderableObjectFlagsR28QSSGShaderDefaultMaterialKeyjP25QSSGRenderDefaultMaterial@@Qt_6_PRIVATE_API
libQt6Quick3DRuntimeRender.so.6:_ZN19QSSGLayerRenderData21prepareModelMaterialsER5QListI23QSSGRenderableNodeEntryEb@@Qt_6_PRIVATE_API
libQt6Quick3DRuntimeRender.so.6:_ZN19QSSGLayerRenderData22globalRenderPropertiesERK26QSSGRenderContextInterface@@Qt_6_PRIVATE_API
libQt6Quick3DRuntimeRender.so.6:_ZN19QSSGLayerRenderData22prepareModelsForRenderER26QSSGRenderContextInterface17QSSGPrepContextId17QSSGRenderablesIdf@@Qt_6_PRIVATE_API
libQt6Quick3DRuntimeRender.so.6:_ZN19QSSGLayerRenderData22prepareModelsForRenderER26QSSGRenderContextInterfaceRK5QListI23QSSGRenderableNodeEntryER37QSSGLayerRenderPreparationResultFlagsRK16QSSGRenderCameraRK20QSSGCameraRenderDataRS2_IP16QSSGModelContextERS2_I26QSSGRenderableObjectHandleESL_SL_f@@Qt_6_PRIVATE_API
libQt6Quick3DRuntimeRender.so.6:_ZN19QSSGLayerRenderData22prepareResourceLoadersEv@@Qt_6_PRIVATE_API
libQt6Quick3DRuntimeRender.so.6:_ZN19QSSGLayerRenderData22setVertexInputPresenceERK25QSSGRenderableObjectFlagsR28QSSGShaderDefaultMaterialKey@@Qt_6_PRIVATE_API
libQt6Quick3DRuntimeRender.so.6:_ZN19QSSGLayerRenderData23prepareItem2DsForRenderERK26QSSGRenderContextInterfaceRK5QListIP16QSSGRenderItem2DE@@Qt_6_PRIVATE_API
libQt6Quick3DRuntimeRender.so.6:_ZN19QSSGLayerRenderData23requestShadowMapManagerEv@@Qt_6_PRIVATE_API
libQt6Quick3DRuntimeRender.so.6:_ZN19QSSGLayerRenderData25prepareParticlesForRenderERK5QListI23QSSGRenderableNodeEntryERK20QSSGCameraRenderData@@Qt_6_PRIVATE_API
libQt6Quick3DRuntimeRender.so.6:_ZN19QSSGLayerRenderData27getOrCreateExtensionContextERK19QSSGRenderExtensionP16QSSGRenderCameraj@@Qt_6_PRIVATE_API
libQt6Quick3DRuntimeRender.so.6:_ZN19QSSGLayerRenderData27requestReflectionMapManagerEv@@Qt_6_PRIVATE_API
libQt6Quick3DRuntimeRender.so.6:_ZN19QSSGLayerRenderData28getSortedBakedLightingModelsEv@@Qt_6_PRIVATE_API
libQt6Quick3DRuntimeRender.so.6:_ZN19QSSGLayerRenderData30prepareCustomMaterialForRenderER24QSSGRenderCustomMaterialR25QSSGRenderableObjectFlagsfbRK12QSSGDataViewI15QSSGShaderLightER37QSSGLayerRenderPreparationResultFlags@@Qt_6_PRIVATE_API
libQt6Quick3DRuntimeRender.so.6:_ZN19QSSGLayerRenderData31prepareDefaultMaterialForRenderER25QSSGRenderDefaultMaterialR25QSSGRenderableObjectFlagsfRK12QSSGDataViewI15QSSGShaderLightER37QSSGLayerRenderPreparationResultFlags@@Qt_6_PRIVATE_API
libQt6Quick3DRuntimeRender.so.6:_ZN19QSSGLayerRenderData31updateSortedDepthObjectsListImpERK16QSSGRenderCameram@@Qt_6_PRIVATE_API
libQt6Quick3DRuntimeRender.so.6:_ZN19QSSGLayerRenderData32getSortedOpaqueRenderableObjectsERK16QSSGRenderCameram@@Qt_6_PRIVATE_API
libQt6Quick3DRuntimeRender.so.6:_ZN19QSSGLayerRenderData32prepareReflectionProbesForRenderEv@@Qt_6_PRIVATE_API
libQt6Quick3DRuntimeRender.so.6:_ZN19QSSGLayerRenderData34getSortedRenderedDepthWriteObjectsERK16QSSGRenderCameram@@Qt_6_PRIVATE_API
libQt6Quick3DRuntimeRender.so.6:_ZN19QSSGLayerRenderData37getSortedTransparentRenderableObjectsERK16QSSGRenderCameram@@Qt_6_PRIVATE_API
libQt6Quick3DRuntimeRender.so.6:_ZN19QSSGLayerRenderData39getSortedScreenTextureRenderableObjectsERK16QSSGRenderCameram@@Qt_6_PRIVATE_API
libQt6Quick3DRuntimeRender.so.6:_ZN19QSSGLayerRenderData42getSortedrenderedOpaqueDepthPrepassObjectsERK16QSSGRenderCameram@@Qt_6_PRIVATE_API
libQt6Quick3DRuntimeRender.so.6:_ZN19QSSGLayerRenderDataC1ER15QSSGRenderLayerR12QSSGRenderer@@Qt_6_PRIVATE_API
libQt6Quick3DRuntimeRender.so.6:_ZN19QSSGLayerRenderDataC2ER15QSSGRenderLayerR12QSSGRenderer@@Qt_6_PRIVATE_API
libQt6Quick3DRuntimeRender.so.6:_ZN19QSSGLayerRenderDataD1Ev@@Qt_6_PRIVATE_API
libQt6Quick3DRuntimeRender.so.6:_ZN19QSSGLayerRenderDataD2Ev@@Qt_6_PRIVATE_API
libQt6Quick3DRuntimeRender.so.6:_ZN19QSSGRenderExtension11prepareDataER13QSSGFrameData@@Qt_6_PRIVATE_API
libQt6Quick3DRuntimeRender.so.6:_ZN19QSSGRenderExtension13prepareRenderER13QSSGFrameData@@Qt_6_PRIVATE_API
libQt6Quick3DRuntimeRender.so.6:_ZN19QSSGRenderExtension13resetForFrameEv@@Qt_6_PRIVATE_API
libQt6Quick3DRuntimeRender.so.6:_ZN19QSSGRenderExtension6renderER13QSSGFrameData@@Qt_6_PRIVATE_API
libQt6Quick3DRuntimeRender.so.6:_ZN19QSSGRenderExtensionC1Ev@@Qt_6_PRIVATE_API
libQt6Quick3DRuntimeRender.so.6:_ZN19QSSGRenderExtensionC2Ev@@Qt_6_PRIVATE_API
libQt6Quick3DRuntimeRender.so.6:_ZN19QSSGRenderExtensionD0Ev@@Qt_6_PRIVATE_API
libQt6Quick3DRuntimeRender.so.6:_ZN19QSSGRenderExtensionD1Ev@@Qt_6_PRIVATE_API
libQt6Quick3DRuntimeRender.so.6:_ZN19QSSGRenderExtensionD2Ev@@Qt_6_PRIVATE_API
libQt6Quick3DRuntimeRender.so.6:_ZN19QSSGRenderParticlesC1Ev@@Qt_6_PRIVATE_API
libQt6Quick3DRuntimeRender.so.6:_ZN19QSSGRenderParticlesC2Ev@@Qt_6_PRIVATE_API
libQt6Quick3DRuntimeRender.so.6:_ZN19QSSGRenderShadowMap14shadowMapEntryEi@@Qt_6_PRIVATE_API
libQt6Quick3DRuntimeRender.so.6:_ZN19QSSGRenderShadowMap17addShadowMapEntryEiii14ShadowMapModesRK7QString@@Qt_6_PRIVATE_API
libQt6Quick3DRuntimeRender.so.6:_ZN19QSSGRenderShadowMap22releaseCachedResourcesEv@@Qt_6_PRIVATE_API
libQt6Quick3DRuntimeRender.so.6:_ZN19QSSGRenderShadowMapC1ERK26QSSGRenderContextInterface@@Qt_6_PRIVATE_API
libQt6Quick3DRuntimeRender.so.6:_ZN19QSSGRenderShadowMapC2ERK26QSSGRenderContextInterface@@Qt_6_PRIVATE_API
libQt6Quick3DRuntimeRender.so.6:_ZN19QSSGRenderShadowMapD1Ev@@Qt_6_PRIVATE_API
libQt6Quick3DRuntimeRender.so.6:_ZN19QSSGRenderShadowMapD2Ev@@Qt_6_PRIVATE_API
libQt6Quick3DRuntimeRender.so.6:_ZN19QSSGRendererPrivate11syncPickAllERK26QSSGRenderContextInterfaceRK15QSSGRenderLayerRK13QSSGRenderRay@@Qt_6_PRIVATE_API
libQt6Quick3DRuntimeRender.so.6:_ZN19QSSGRendererPrivate21getLayerHitObjectListERK15QSSGRenderLayerR17QSSGBufferManagerRK13QSSGRenderRaybR15QVarLengthArrayI20QSSGRenderPickResultLx20EE@@Qt_6_PRIVATE_API
libQt6Quick3DRuntimeRender.so.6:_ZN19QSSGRendererPrivate22intersectRayWithItem2DERK13QSSGRenderRayRK16QSSGRenderItem2DR15QVarLengthArrayI20QSSGRenderPickResultLx20EE@@Qt_6_PRIVATE_API
libQt6Quick3DRuntimeRender.so.6:_ZN19QSSGRendererPrivate23setGlobalPickingEnabledER12QSSGRendererb@@Qt_6_PRIVATE_API
libQt6Quick3DRuntimeRender.so.6:_ZN19QSSGRendererPrivate25generateRhiShaderPipelineER12QSSGRendererR20QSSGSubsetRenderableRK18QSSGShaderFeatures@@Qt_6_PRIVATE_API
libQt6Quick3DRuntimeRender.so.6:_ZN19QSSGRendererPrivate25setRenderContextInterfaceER12QSSGRendererP26QSSGRenderContextInterface@@Qt_6_PRIVATE_API
libQt6Quick3DRuntimeRender.so.6:_ZN19QSSGRendererPrivate29generateRhiShaderPipelineImplER20QSSGSubsetRenderableR24QSSGShaderLibraryManagerR15QSSGShaderCacheR20QSSGProgramGeneratorRK38QSSGShaderDefaultMaterialKeyPropertiesRK18QSSGShaderFeaturesR10QByteArray@@Qt_6_PRIVATE_API
libQt6Quick3DRuntimeRender.so.6:_ZN19QSSGRendererPrivate32intersectRayWithSubsetRenderableER17QSSGBufferManagerRK13QSSGRenderRayRK14QSSGRenderNodeR15QVarLengthArrayI20QSSGRenderPickResultLx20EE@@Qt_6_PRIVATE_API
libQt6Quick3DRuntimeRender.so.6:_ZN19QSSGRendererPrivate35getShaderPipelineForDefaultMaterialER12QSSGRendererR20QSSGSubsetRenderableRK18QSSGShaderFeatures@@Qt_6_PRIVATE_API
libQt6Quick3DRuntimeRender.so.6:_ZN19QSSGRendererPrivate8syncPickERK26QSSGRenderContextInterfaceRK15QSSGRenderLayerRK13QSSGRenderRayP14QSSGRenderNode@@Qt_6_PRIVATE_API
libQt6Quick3DRuntimeRender.so.6:_ZN19QSSGRhiContextStats11drawIndexedEjj@@Qt_6_PRIVATE_API
libQt6Quick3DRuntimeRender.so.6:_ZN19QSSGRhiContextStats13endRenderPassEv@@Qt_6_PRIVATE_API
libQt6Quick3DRuntimeRender.so.6:_ZN19QSSGRhiContextStats15beginRenderPassEP23QRhiTextureRenderTarget@@Qt_6_PRIVATE_API
libQt6Quick3DRuntimeRender.so.6:_ZN19QSSGRhiContextStats15printRenderPassERKNS_14RenderPassInfoE@@Qt_6_PRIVATE_API
libQt6Quick3DRuntimeRender.so.6:_ZN19QSSGRhiContextStats16cleanupLayerInfoEP15QSSGRenderLayer@@Qt_6_PRIVATE_API
libQt6Quick3DRuntimeRender.so.6:_ZN19QSSGRhiContextStats16profilingEnabledEv@@Qt_6_PRIVATE_API
libQt6Quick3DRuntimeRender.so.6:_ZN19QSSGRhiContextStats20rendererDebugEnabledEv@@Qt_6_PRIVATE_API
libQt6Quick3DRuntimeRender.so.6:_ZN19QSSGRhiContextStats3getER14QSSGRhiContext@@Qt_6_PRIVATE_API
libQt6Quick3DRuntimeRender.so.6:_ZN19QSSGRhiContextStats3getERK14QSSGRhiContext@@Qt_6_PRIVATE_API
libQt6Quick3DRuntimeRender.so.6:_ZN19QSSGRhiContextStats4drawEjj@@Qt_6_PRIVATE_API
libQt6Quick3DRuntimeRender.so.6:_ZN19QSSGRhiContextStats4stopEP15QSSGRenderLayer@@Qt_6_PRIVATE_API
libQt6Quick3DRuntimeRender.so.6:_ZN19QSSGRhiContextStats5startEP15QSSGRenderLayer@@Qt_6_PRIVATE_API
libQt6Quick3DRuntimeRender.so.6:_ZN19QSSGRhiCubeRenderer11prepareCubeEP14QSSGRhiContextP23QRhiResourceUpdateBatch@@Qt_6_PRIVATE_API
libQt6Quick3DRuntimeRender.so.6:_ZN19QSSGRhiCubeRenderer13ensureBuffersEP14QSSGRhiContextP23QRhiResourceUpdateBatch@@Qt_6_PRIVATE_API
libQt6Quick3DRuntimeRender.so.6:_ZN19QSSGRhiCubeRenderer16recordRenderCubeEP14QSSGRhiContextP28QSSGRhiGraphicsPipelineStateP26QRhiShaderResourceBindingsP24QRhiRenderPassDescriptor6QFlagsIN19QSSGRhiQuadRenderer4FlagEE@@Qt_6_PRIVATE_API
libQt6Quick3DRuntimeRender.so.6:_ZN19QSSGRhiEffectSystem10getTextureERK10QByteArrayRK5QSizeN11QRhiTexture6FormatEbPK16QSSGRenderEffect@@Qt_6_PRIVATE_API
libQt6Quick3DRuntimeRender.so.6:_ZN19QSSGRhiEffectSystem11findTextureERK10QByteArray@@Qt_6_PRIVATE_API
libQt6Quick3DRuntimeRender.so.6:_ZN19QSSGRhiEffectSystem13applyValueCmdEPK14QSSGApplyValuePK16QSSGRenderEffect@@Qt_6_PRIVATE_API
libQt6Quick3DRuntimeRender.so.6:_ZN19QSSGRhiEffectSystem13bindShaderCmdEPK14QSSGBindShaderPK16QSSGRenderEffect@@Qt_6_PRIVATE_API
libQt6Quick3DRuntimeRender.so.6:_ZN19QSSGRhiEffectSystem14doRenderEffectEPK16QSSGRenderEffectP20QSSGRhiEffectTexture@@Qt_6_PRIVATE_API
libQt6Quick3DRuntimeRender.so.6:_ZN19QSSGRhiEffectSystem14releaseTextureEP20QSSGRhiEffectTexture@@Qt_6_PRIVATE_API
libQt6Quick3DRuntimeRender.so.6:_ZN19QSSGRhiEffectSystem15releaseTexturesEv@@Qt_6_PRIVATE_API
libQt6Quick3DRuntimeRender.so.6:_ZN19QSSGRhiEffectSystem16releaseResourcesEv@@Qt_6_PRIVATE_API
libQt6Quick3DRuntimeRender.so.6:_ZN19QSSGRhiEffectSystem17allocateBufferCmdEPK18QSSGAllocateBufferP20QSSGRhiEffectTexturePK16QSSGRenderEffect@@Qt_6_PRIVATE_API
libQt6Quick3DRuntimeRender.so.6:_ZN19QSSGRhiEffectSystem20buildShaderForEffectERK14QSSGBindShaderR20QSSGProgramGeneratorR24QSSGShaderLibraryManagerR15QSSGShaderCacheb@@Qt_6_PRIVATE_API
libQt6Quick3DRuntimeRender.so.6:_ZN19QSSGRhiEffectSystem21applyInstanceValueCmdEPK22QSSGApplyInstanceValuePK16QSSGRenderEffect@@Qt_6_PRIVATE_API
libQt6Quick3DRuntimeRender.so.6:_ZN19QSSGRhiEffectSystem22overriddenOutputFormatEPK16QSSGRenderEffect@@Qt_6_PRIVATE_API
libQt6Quick3DRuntimeRender.so.6:_ZN19QSSGRhiEffectSystem23addCommonEffectUniformsERK5QSizeS2_@@Qt_6_PRIVATE_API
libQt6Quick3DRuntimeRender.so.6:_ZN19QSSGRhiEffectSystem26addTextureToShaderPipelineERK10QByteArrayP11QRhiTextureRK25QSSGRhiSamplerDescription@@Qt_6_PRIVATE_API
libQt6Quick3DRuntimeRender.so.6:_ZN19QSSGRhiEffectSystem5setupE5QSize@@Qt_6_PRIVATE_API
libQt6Quick3DRuntimeRender.so.6:_ZN19QSSGRhiEffectSystem7processERK16QSSGRenderEffectP11QRhiTextureS4_9QVector2D@@Qt_6_PRIVATE_API
libQt6Quick3DRuntimeRender.so.6:_ZN19QSSGRhiEffectSystem9renderCmdEP20QSSGRhiEffectTextureS1_@@Qt_6_PRIVATE_API
libQt6Quick3DRuntimeRender.so.6:_ZN19QSSGRhiEffectSystemC1ERKSt10shared_ptrI26QSSGRenderContextInterfaceE@@Qt_6_PRIVATE_API
libQt6Quick3DRuntimeRender.so.6:_ZN19QSSGRhiEffectSystemC2ERKSt10shared_ptrI26QSSGRenderContextInterfaceE@@Qt_6_PRIVATE_API
libQt6Quick3DRuntimeRender.so.6:_ZN19QSSGRhiEffectSystemD1Ev@@Qt_6_PRIVATE_API
libQt6Quick3DRuntimeRender.so.6:_ZN19QSSGRhiEffectSystemD2Ev@@Qt_6_PRIVATE_API
libQt6Quick3DRuntimeRender.so.6:_ZN19QSSGRhiQuadRenderer11prepareQuadEP14QSSGRhiContextP23QRhiResourceUpdateBatch@@Qt_6_PRIVATE_API
libQt6Quick3DRuntimeRender.so.6:_ZN19QSSGRhiQuadRenderer13ensureBuffersEP14QSSGRhiContextP23QRhiResourceUpdateBatch@@Qt_6_PRIVATE_API
libQt6Quick3DRuntimeRender.so.6:_ZN19QSSGRhiQuadRenderer16recordRenderQuadEP14QSSGRhiContextP28QSSGRhiGraphicsPipelineStateP26QRhiShaderResourceBindingsP24QRhiRenderPassDescriptor6QFlagsINS_4FlagEE@@Qt_6_PRIVATE_API
libQt6Quick3DRuntimeRender.so.6:_ZN19QSSGRhiQuadRenderer20recordRenderQuadPassEP14QSSGRhiContextP28QSSGRhiGraphicsPipelineStateP26QRhiShaderResourceBindingsP23QRhiTextureRenderTarget6QFlagsINS_4FlagEE@@Qt_6_PRIVATE_API
libQt6Quick3DRuntimeRender.so.6:_ZN20QSSGProgramGenerator10linkStagesEv@@Qt_6_PRIVATE_API
libQt6Quick3DRuntimeRender.so.6:_ZN20QSSGProgramGenerator12beginProgramE6QFlagsI24QSSGShaderGeneratorStageE@@Qt_6_PRIVATE_API
libQt6Quick3DRuntimeRender.so.6:_ZN20QSSGProgramGenerator16internalGetStageE24QSSGShaderGeneratorStage@@Qt_6_PRIVATE_API
libQt6Quick3DRuntimeRender.so.6:_ZN20QSSGProgramGenerator25compileGeneratedRhiShaderERK10QByteArrayRK18QSSGShaderFeaturesR24QSSGShaderLibraryManagerR15QSSGShaderCache6QFlagsIN21QSSGRhiShaderPipeline9StageFlagEE@@Qt_6_PRIVATE_API
libQt6Quick3DRuntimeRender.so.6:_ZN20QSSGProgramGenerator32registerShaderMetaDataFromSourceEP30QSSGShaderResourceMergeContextRK10QByteArray24QSSGShaderGeneratorStage@@Qt_6_PRIVATE_API
libQt6Quick3DRuntimeRender.so.6:_ZN20QSSGProgramGenerator8getStageE24QSSGShaderGeneratorStage@@Qt_6_PRIVATE_API
libQt6Quick3DRuntimeRender.so.6:_ZN20QSSGSubsetRenderableC1EN20QSSGRenderableObject4TypeE25QSSGRenderableObjectFlagsRK9QVector3DP12QSSGRendererRK16QSSGRenderSubsetRK16QSSGModelContextfjRK21QSSGRenderGraphObjectP19QSSGRenderableImage28QSSGShaderDefaultMaterialKeyRK12QSSGDataViewI15QSSGShaderLightE@@Qt_6_PRIVATE_API
libQt6Quick3DRuntimeRender.so.6:_ZN20QSSGSubsetRenderableC2EN20QSSGRenderableObject4TypeE25QSSGRenderableObjectFlagsRK9QVector3DP12QSSGRendererRK16QSSGRenderSubsetRK16QSSGModelContextfjRK21QSSGRenderGraphObjectP19QSSGRenderableImage28QSSGShaderDefaultMaterialKeyRK12QSSGDataViewI15QSSGShaderLightE@@Qt_6_PRIVATE_API
libQt6Quick3DRuntimeRender.so.6:_ZN21QSSGRenderGraphObjectC1ENS_4TypeE@@Qt_6_PRIVATE_API
libQt6Quick3DRuntimeRender.so.6:_ZN21QSSGRenderGraphObjectC2ENS_4TypeE@@Qt_6_PRIVATE_API
libQt6Quick3DRuntimeRender.so.6:_ZN21QSSGRenderGraphObjectD0Ev@@Qt_6_PRIVATE_API
libQt6Quick3DRuntimeRender.so.6:_ZN21QSSGRenderGraphObjectD1Ev@@Qt_6_PRIVATE_API
libQt6Quick3DRuntimeRender.so.6:_ZN21QSSGRenderGraphObjectD2Ev@@Qt_6_PRIVATE_API
libQt6Quick3DRuntimeRender.so.6:_ZN21QSSGRenderMorphTargetC1Ev@@Qt_6_PRIVATE_API
libQt6Quick3DRuntimeRender.so.6:_ZN21QSSGRenderMorphTargetC2Ev@@Qt_6_PRIVATE_API
libQt6Quick3DRuntimeRender.so.6:_ZN21QSSGRenderMorphTargetD0Ev@@Qt_6_PRIVATE_API
libQt6Quick3DRuntimeRender.so.6:_ZN21QSSGRenderMorphTargetD1Ev@@Qt_6_PRIVATE_API
libQt6Quick3DRuntimeRender.so.6:_ZN21QSSGRenderMorphTargetD2Ev@@Qt_6_PRIVATE_API
libQt6Quick3DRuntimeRender.so.6:_ZN21QSSGRenderTextureData14setTextureDataERK10QByteArray@@Qt_6_PRIVATE_API
libQt6Quick3DRuntimeRender.so.6:_ZN21QSSGRenderTextureData18setHasTransparencyEb@@Qt_6_PRIVATE_API
libQt6Quick3DRuntimeRender.so.6:_ZN21QSSGRenderTextureData7setSizeERK5QSize@@Qt_6_PRIVATE_API
libQt6Quick3DRuntimeRender.so.6:_ZN21QSSGRenderTextureData8setDepthEi@@Qt_6_PRIVATE_API
libQt6Quick3DRuntimeRender.so.6:_ZN21QSSGRenderTextureData9markDirtyEv@@Qt_6_PRIVATE_API
libQt6Quick3DRuntimeRender.so.6:_ZN21QSSGRenderTextureData9setFormatE23QSSGRenderTextureFormat@@Qt_6_PRIVATE_API
libQt6Quick3DRuntimeRender.so.6:_ZN21QSSGRenderTextureDataC1EN21QSSGRenderGraphObject4TypeE@@Qt_6_PRIVATE_API
libQt6Quick3DRuntimeRender.so.6:_ZN21QSSGRenderTextureDataC1Ev@@Qt_6_PRIVATE_API
libQt6Quick3DRuntimeRender.so.6:_ZN21QSSGRenderTextureDataC2EN21QSSGRenderGraphObject4TypeE@@Qt_6_PRIVATE_API
libQt6Quick3DRuntimeRender.so.6:_ZN21QSSGRenderTextureDataC2Ev@@Qt_6_PRIVATE_API
libQt6Quick3DRuntimeRender.so.6:_ZN21QSSGRenderTextureDataD0Ev@@Qt_6_PRIVATE_API
libQt6Quick3DRuntimeRender.so.6:_ZN21QSSGRenderTextureDataD1Ev@@Qt_6_PRIVATE_API
libQt6Quick3DRuntimeRender.so.6:_ZN21QSSGRenderTextureDataD2Ev@@Qt_6_PRIVATE_API
libQt6Quick3DRuntimeRender.so.6:_ZN21QSSGRhiContextPrivate10editorModeEv@@Qt_6_PRIVATE_API
libQt6Quick3DRuntimeRender.so.6:_ZN21QSSGRhiContextPrivate11releaseMeshEP14QSSGRenderMesh@@Qt_6_PRIVATE_API
libQt6Quick3DRuntimeRender.so.6:_ZN21QSSGRhiContextPrivate12drawCallDataERK22QSSGRhiDrawCallDataKey@@Qt_6_PRIVATE_API
libQt6Quick3DRuntimeRender.so.6:_ZN21QSSGRhiContextPrivate12particleDataEPK21QSSGRenderGraphObject@@Qt_6_PRIVATE_API
libQt6Quick3DRuntimeRender.so.6:_ZN21QSSGRhiContextPrivate12registerMeshEP14QSSGRenderMesh@@Qt_6_PRIVATE_API
libQt6Quick3DRuntimeRender.so.6:_ZN21QSSGRhiContextPrivate14releaseTextureEP11QRhiTexture@@Qt_6_PRIVATE_API
libQt6Quick3DRuntimeRender.so.6:_ZN21QSSGRhiContextPrivate15computePipelineERK27QSSGComputePipelineStateKeyP26QRhiShaderResourceBindings@@Qt_6_PRIVATE_API
libQt6Quick3DRuntimeRender.so.6:_ZN21QSSGRhiContextPrivate15computePipelineERK7QShaderP26QRhiShaderResourceBindings@@Qt_6_PRIVATE_API
libQt6Quick3DRuntimeRender.so.6:_ZN21QSSGRhiContextPrivate15registerTextureEP11QRhiTexture@@Qt_6_PRIVATE_API
libQt6Quick3DRuntimeRender.so.6:_ZN21QSSGRhiContextPrivate15setRenderTargetEP16QRhiRenderTarget@@Qt_6_PRIVATE_API
libQt6Quick3DRuntimeRender.so.6:_ZN21QSSGRhiContextPrivate16setCommandBufferEP17QRhiCommandBuffer@@Qt_6_PRIVATE_API
libQt6Quick3DRuntimeRender.so.6:_ZN21QSSGRhiContextPrivate18instanceBufferDataEP23QSSGRenderInstanceTable@@Qt_6_PRIVATE_API
libQt6Quick3DRuntimeRender.so.6:_ZN21QSSGRhiContextPrivate18instanceBufferDataEPK15QSSGRenderModel@@Qt_6_PRIVATE_API
libQt6Quick3DRuntimeRender.so.6:_ZN21QSSGRhiContextPrivate19cleanupDrawCallDataEPK15QSSGRenderModel@@Qt_6_PRIVATE_API
libQt6Quick3DRuntimeRender.so.6:_ZN21QSSGRhiContextPrivate19releaseDrawCallDataER19QSSGRhiDrawCallData@@Qt_6_PRIVATE_API
libQt6Quick3DRuntimeRender.so.6:_ZN21QSSGRhiContextPrivate22releaseCachedResourcesEv@@Qt_6_PRIVATE_API
libQt6Quick3DRuntimeRender.so.6:_ZN21QSSGRhiContextPrivate22setMainPassSampleCountEi@@Qt_6_PRIVATE_API
libQt6Quick3DRuntimeRender.so.6:_ZN21QSSGRhiContextPrivate22shaderDebuggingEnabledEv@@Qt_6_PRIVATE_API
libQt6Quick3DRuntimeRender.so.6:_ZN21QSSGRhiContextPrivate27setMainRenderPassDescriptorEP24QRhiRenderPassDescriptor@@Qt_6_PRIVATE_API
libQt6Quick3DRuntimeRender.so.6:_ZN21QSSGRhiContextPrivate3srbERK32QSSGRhiShaderResourceBindingList@@Qt_6_PRIVATE_API
libQt6Quick3DRuntimeRender.so.6:_ZN21QSSGRhiContextPrivate8pipelineERK28QSSGGraphicsPipelineStateKeyP24QRhiRenderPassDescriptorP26QRhiShaderResourceBindings@@Qt_6_PRIVATE_API
libQt6Quick3DRuntimeRender.so.6:_ZN21QSSGRhiContextPrivate8pipelineERK28QSSGRhiGraphicsPipelineStateP24QRhiRenderPassDescriptorP26QRhiShaderResourceBindings@@Qt_6_PRIVATE_API
libQt6Quick3DRuntimeRender.so.6:_ZN21QSSGRhiShaderPipeline10setUniformEPcPKcPKvmPi6QFlagsINS_11UniformFlagEE@@Qt_6_PRIVATE_API
libQt6Quick3DRuntimeRender.so.6:_ZN21QSSGRhiShaderPipeline15offsetOfUniformERK10QByteArray@@Qt_6_PRIVATE_API
libQt6Quick3DRuntimeRender.so.6:_ZN21QSSGRhiShaderPipeline15setUniformArrayEPcPKcPKvmN21QSSGRenderShaderValue4TypeEPi@@Qt_6_PRIVATE_API
libQt6Quick3DRuntimeRender.so.6:_ZN21QSSGRhiShaderPipeline15setUniformValueEPcPKcRK8QVariantN21QSSGRenderShaderValue4TypeE@@Qt_6_PRIVATE_API
libQt6Quick3DRuntimeRender.so.6:_ZN21QSSGRhiShaderPipeline17bindingForTextureEPKci@@Qt_6_PRIVATE_API
libQt6Quick3DRuntimeRender.so.6:_ZN21QSSGRhiShaderPipeline19ensureUniformBufferEPP10QRhiBuffer@@Qt_6_PRIVATE_API
libQt6Quick3DRuntimeRender.so.6:_ZN21QSSGRhiShaderPipeline37ensureCombinedMainLightsUniformBufferEPP10QRhiBuffer@@Qt_6_PRIVATE_API
libQt6Quick3DRuntimeRender.so.6:_ZN21QSSGRhiShaderPipeline8addStageERK15QRhiShaderStage6QFlagsINS_9StageFlagEE@@Qt_6_PRIVATE_API
libQt6Quick3DRuntimeRender.so.6:_ZN22QSSGStageGeneratorBase10addIncludeERK10QByteArray@@Qt_6_PRIVATE_API
libQt6Quick3DRuntimeRender.so.6:_ZN22QSSGStageGeneratorBase10addUniformERK10QByteArrayS2_@@Qt_6_PRIVATE_API
libQt6Quick3DRuntimeRender.so.6:_ZN22QSSGStageGeneratorBase11addFunctionERK10QByteArray@@Qt_6_PRIVATE_API
libQt6Quick3DRuntimeRender.so.6:_ZN22QSSGStageGeneratorBase11addIncomingERK10QByteArrayS2_@@Qt_6_PRIVATE_API
libQt6Quick3DRuntimeRender.so.6:_ZN22QSSGStageGeneratorBase11addOutgoingERK10QByteArrayS2_@@Qt_6_PRIVATE_API
libQt6Quick3DRuntimeRender.so.6:_ZN22QSSGStageGeneratorBase13addDefinitionERK10QByteArrayS2_@@Qt_6_PRIVATE_API
libQt6Quick3DRuntimeRender.so.6:_ZN22QSSGStageGeneratorBase15addUniformArrayERK10QByteArrayS2_j@@Qt_6_PRIVATE_API
libQt6Quick3DRuntimeRender.so.6:_ZN22QSSGStageGeneratorBase16addShaderItemMapENS_14ShaderItemTypeERK4QMapI10QByteArrayS2_ERKS2_@@Qt_6_PRIVATE_API
libQt6Quick3DRuntimeRender.so.6:_ZN22QSSGStageGeneratorBase16appendShaderCodeEv@@Qt_6_PRIVATE_API
libQt6Quick3DRuntimeRender.so.6:_ZN22QSSGStageGeneratorBase17addConstantBufferERK10QByteArrayS2_@@Qt_6_PRIVATE_API
libQt6Quick3DRuntimeRender.so.6:_ZN22QSSGStageGeneratorBase19addShaderUniformMapEv@@Qt_6_PRIVATE_API
libQt6Quick3DRuntimeRender.so.6:_ZN22QSSGStageGeneratorBase20addShaderIncomingMapEv@@Qt_6_PRIVATE_API
libQt6Quick3DRuntimeRender.so.6:_ZN22QSSGStageGeneratorBase20addShaderOutgoingMapEv@@Qt_6_PRIVATE_API
libQt6Quick3DRuntimeRender.so.6:_ZN22QSSGStageGeneratorBase20addShaderPass2MarkerENS_14ShaderItemTypeE@@Qt_6_PRIVATE_API
libQt6Quick3DRuntimeRender.so.6:_ZN22QSSGStageGeneratorBase22addConstantBufferParamERK10QByteArrayS2_S2_@@Qt_6_PRIVATE_API
libQt6Quick3DRuntimeRender.so.6:_ZN22QSSGStageGeneratorBase22buildShaderSourcePass1EP30QSSGShaderResourceMergeContext@@Qt_6_PRIVATE_API
libQt6Quick3DRuntimeRender.so.6:_ZN22QSSGStageGeneratorBase22buildShaderSourcePass2EP30QSSGShaderResourceMergeContext@@Qt_6_PRIVATE_API
libQt6Quick3DRuntimeRender.so.6:_ZN22QSSGStageGeneratorBase30addShaderConstantBufferItemMapERK10QByteArrayRK4QMapIS0_S0_E5QListISt4pairIS0_S8_IS0_S0_EEE@@Qt_6_PRIVATE_API
libQt6Quick3DRuntimeRender.so.6:_ZN22QSSGStageGeneratorBase5beginE6QFlagsI24QSSGShaderGeneratorStageE@@Qt_6_PRIVATE_API
libQt6Quick3DRuntimeRender.so.6:_ZN22QSSGStageGeneratorBase6appendERK10QByteArray@@Qt_6_PRIVATE_API
libQt6Quick3DRuntimeRender.so.6:_ZN22QSSGStageGeneratorBaseC1E24QSSGShaderGeneratorStage@@Qt_6_PRIVATE_API
libQt6Quick3DRuntimeRender.so.6:_ZN22QSSGStageGeneratorBaseC2E24QSSGShaderGeneratorStage@@Qt_6_PRIVATE_API
libQt6Quick3DRuntimeRender.so.6:_ZN22QSSGStageGeneratorBaselsERK10QByteArray@@Qt_6_PRIVATE_API
libQt6Quick3DRuntimeRender.so.6:_ZN22QtQuick3DEditorHelpers11ShaderBaker17setStatusCallbackEPFvRK10QByteArrayNS0_6StatusERK7QStringN7QShader5StageEE@@Qt_6
libQt6Quick3DRuntimeRender.so.6:_ZN22QtQuick3DEditorHelpers11ShaderCache21setAutomaticDiskCacheEb@@Qt_6
libQt6Quick3DRuntimeRender.so.6:_ZN22QtQuick3DEditorHelpers11ShaderCache27isAutomaticDiskCacheEnabledEv@@Qt_6
libQt6Quick3DRuntimeRender.so.6:_ZN22QtQuick3DEditorHelpers14CustomMaterial16preprocessorVarsEv@@Qt_6
libQt6Quick3DRuntimeRender.so.6:_ZN22QtQuick3DEditorHelpers14CustomMaterial21reservedArgumentNamesEv@@Qt_6
libQt6Quick3DRuntimeRender.so.6:_ZN23QSSGParticlesRenderableC1E25QSSGRenderableObjectFlagsRK9QVector3DP12QSSGRendererRK19QSSGRenderParticlesP19QSSGRenderableImageSA_RK12QSSGDataViewI15QSSGShaderLightEf@@Qt_6_PRIVATE_API
libQt6Quick3DRuntimeRender.so.6:_ZN23QSSGParticlesRenderableC2E25QSSGRenderableObjectFlagsRK9QVector3DP12QSSGRendererRK19QSSGRenderParticlesP19QSSGRenderableImageSA_RK12QSSGDataViewI15QSSGShaderLightEf@@Qt_6_PRIVATE_API
libQt6Quick3DRuntimeRender.so.6:_ZN23QSSGRenderReflectionMap18reflectionMapEntryEi@@Qt_6_PRIVATE_API
libQt6Quick3DRuntimeRender.so.6:_ZN23QSSGRenderReflectionMap21addReflectionMapEntryEiRK25QSSGRenderReflectionProbe@@Qt_6_PRIVATE_API
libQt6Quick3DRuntimeRender.so.6:_ZN23QSSGRenderReflectionMap22releaseCachedResourcesEv@@Qt_6_PRIVATE_API
libQt6Quick3DRuntimeRender.so.6:_ZN23QSSGRenderReflectionMap29addTexturedReflectionMapEntryEiRK25QSSGRenderReflectionProbe@@Qt_6_PRIVATE_API
libQt6Quick3DRuntimeRender.so.6:_ZN23QSSGRenderReflectionMapC1ERK26QSSGRenderContextInterface@@Qt_6_PRIVATE_API
libQt6Quick3DRuntimeRender.so.6:_ZN23QSSGRenderReflectionMapC2ERK26QSSGRenderContextInterface@@Qt_6_PRIVATE_API
libQt6Quick3DRuntimeRender.so.6:_ZN23QSSGRenderReflectionMapD1Ev@@Qt_6_PRIVATE_API
libQt6Quick3DRuntimeRender.so.6:_ZN23QSSGRenderReflectionMapD2Ev@@Qt_6_PRIVATE_API
libQt6Quick3DRuntimeRender.so.6:_ZN24QSSGCustomMaterialSystem16prepareForRenderERK15QSSGRenderModelRK16QSSGRenderSubsetR24QSSGRenderCustomMaterial@@Qt_6_PRIVATE_API
libQt6Quick3DRuntimeRender.so.6:_ZN24QSSGCustomMaterialSystem18setShaderResourcesEPcRK24QSSGRenderCustomMaterialRK10QByteArrayRK8QVariantN21QSSGRenderShaderValue4TypeER21QSSGRhiShaderPipeline@@Qt_6_PRIVATE_API
libQt6Quick3DRuntimeRender.so.6:_ZN24QSSGCustomMaterialSystem19rhiRenderRenderableEP14QSSGRhiContextR20QSSGSubsetRenderablePb25QSSGRenderTextureCubeFaceRK28QSSGRhiGraphicsPipelineState@@Qt_6_PRIVATE_API
libQt6Quick3DRuntimeRender.so.6:_ZN24QSSGCustomMaterialSystem20rhiPrepareRenderableEP28QSSGRhiGraphicsPipelineStatePvR20QSSGSubsetRenderableRK18QSSGShaderFeaturesRK24QSSGRenderCustomMaterialRK19QSSGLayerRenderDataP24QRhiRenderPassDescriptoriP16QSSGRenderCamera25QSSGRenderTextureCubeFaceP10QMatrix4x4P22QSSGReflectionMapEntry@@Qt_6_PRIVATE_API
libQt6Quick3DRuntimeRender.so.6:_ZN24QSSGCustomMaterialSystem22releaseCachedResourcesEv@@Qt_6_PRIVATE_API
libQt6Quick3DRuntimeRender.so.6:_ZN24QSSGCustomMaterialSystem24shadersForCustomMaterialEP28QSSGRhiGraphicsPipelineStateRK24QSSGRenderCustomMaterialR20QSSGSubsetRenderableRK38QSSGShaderDefaultMaterialKeyPropertiesRK18QSSGShaderFeatures@@Qt_6_PRIVATE_API
libQt6Quick3DRuntimeRender.so.6:_ZN24QSSGCustomMaterialSystem25setRenderContextInterfaceEP26QSSGRenderContextInterface@@Qt_6_PRIVATE_API
libQt6Quick3DRuntimeRender.so.6:_ZN24QSSGCustomMaterialSystem28applyRhiShaderPropertyValuesEPcRK24QSSGRenderCustomMaterialR21QSSGRhiShaderPipeline@@Qt_6_PRIVATE_API
libQt6Quick3DRuntimeRender.so.6:_ZN24QSSGCustomMaterialSystem31updateUniformsForCustomMaterialER21QSSGRhiShaderPipelineP14QSSGRhiContextRK19QSSGLayerRenderDataPcP28QSSGRhiGraphicsPipelineStateRK24QSSGRenderCustomMaterialR20QSSGSubsetRenderableRK16QSSGRenderCameraPK9QVector2DPK10QMatrix4x4@@Qt_6_PRIVATE_API
libQt6Quick3DRuntimeRender.so.6:_ZN24QSSGCustomMaterialSystemC1Ev@@Qt_6_PRIVATE_API
libQt6Quick3DRuntimeRender.so.6:_ZN24QSSGCustomMaterialSystemC2Ev@@Qt_6_PRIVATE_API
libQt6Quick3DRuntimeRender.so.6:_ZN24QSSGCustomMaterialSystemD1Ev@@Qt_6_PRIVATE_API
libQt6Quick3DRuntimeRender.so.6:_ZN24QSSGCustomMaterialSystemD2Ev@@Qt_6_PRIVATE_API
libQt6Quick3DRuntimeRender.so.6:_ZN24QSSGRenderCustomMaterial10clearDirtyEv@@Qt_6_PRIVATE_API
libQt6Quick3DRuntimeRender.so.6:_ZN24QSSGRenderCustomMaterial14setAlwaysDirtyEb@@Qt_6_PRIVATE_API
libQt6Quick3DRuntimeRender.so.6:_ZN24QSSGRenderCustomMaterial9markDirtyEv@@Qt_6_PRIVATE_API
libQt6Quick3DRuntimeRender.so.6:_ZN24QSSGRenderCustomMaterialC1Ev@@Qt_6_PRIVATE_API
libQt6Quick3DRuntimeRender.so.6:_ZN24QSSGRenderCustomMaterialC2Ev@@Qt_6_PRIVATE_API
libQt6Quick3DRuntimeRender.so.6:_ZN24QSSGRenderCustomMaterialD0Ev@@Qt_6_PRIVATE_API
libQt6Quick3DRuntimeRender.so.6:_ZN24QSSGRenderCustomMaterialD1Ev@@Qt_6_PRIVATE_API
libQt6Quick3DRuntimeRender.so.6:_ZN24QSSGRenderCustomMaterialD2Ev@@Qt_6_PRIVATE_API
libQt6Quick3DRuntimeRender.so.6:_ZN24QSSGRenderResourceLoaderC1Ev@@Qt_6_PRIVATE_API
libQt6Quick3DRuntimeRender.so.6:_ZN24QSSGRenderResourceLoaderC2Ev@@Qt_6_PRIVATE_API
libQt6Quick3DRuntimeRender.so.6:_ZN24QSSGShaderLibraryManager15getShaderSourceERK10QByteArrayN15QSSGShaderCache10ShaderTypeE@@Qt_6_PRIVATE_API
libQt6Quick3DRuntimeRender.so.6:_ZN24QSSGShaderLibraryManager15setShaderSourceERK10QByteArrayN15QSSGShaderCache10ShaderTypeES2_RK24QSSGCustomShaderMetaData@@Qt_6_PRIVATE_API
libQt6Quick3DRuntimeRender.so.6:_ZN24QSSGShaderLibraryManager17getShaderMetaDataERK10QByteArrayN15QSSGShaderCache10ShaderTypeE@@Qt_6_PRIVATE_API
libQt6Quick3DRuntimeRender.so.6:_ZN24QSSGShaderLibraryManager18getIncludeContentsERK10QByteArray@@Qt_6_PRIVATE_API
libQt6Quick3DRuntimeRender.so.6:_ZN24QSSGShaderLibraryManager19resolveIncludeFilesER10QByteArrayRKS0_@@Qt_6_PRIVATE_API
libQt6Quick3DRuntimeRender.so.6:_ZN24QSSGShaderLibraryManager26loadPregeneratedShaderInfoEv@@Qt_6_PRIVATE_API
libQt6Quick3DRuntimeRender.so.6:_ZN24QSSGShaderLibraryManager29getShaderCodeLibraryDirectoryEv@@Qt_6_PRIVATE_API
libQt6Quick3DRuntimeRender.so.6:_ZN24QSSGShaderLibraryManager7compareERK28QSSGShaderDefaultMaterialKeyS2_@@Qt_6_PRIVATE_API
libQt6Quick3DRuntimeRender.so.6:_ZN24QSSGShaderLibraryManagerC1Ev@@Qt_6_PRIVATE_API
libQt6Quick3DRuntimeRender.so.6:_ZN24QSSGShaderLibraryManagerC2Ev@@Qt_6_PRIVATE_API
libQt6Quick3DRuntimeRender.so.6:_ZN24QSSGShaderLibraryManagerD1Ev@@Qt_6_PRIVATE_API
libQt6Quick3DRuntimeRender.so.6:_ZN24QSSGShaderLibraryManagerD2Ev@@Qt_6_PRIVATE_API
libQt6Quick3DRuntimeRender.so.6:_ZN25QSSGBuiltInRhiShaderCache16getRhiGridShaderEv@@Qt_6_PRIVATE_API
libQt6Quick3DRuntimeRender.so.6:_ZN25QSSGBuiltInRhiShaderCache16getRhiSsaoShaderEv@@Qt_6_PRIVATE_API
libQt6Quick3DRuntimeRender.so.6:_ZN25QSSGBuiltInRhiShaderCache18getRhiSkyBoxShaderEN15QSSGRenderLayer11TonemapModeEb@@Qt_6_PRIVATE_API
libQt6Quick3DRuntimeRender.so.6:_ZN25QSSGBuiltInRhiShaderCache19getBuiltinRhiShaderERK10QByteArrayRSt10shared_ptrI21QSSGRhiShaderPipelineE@@Qt_6_PRIVATE_API
libQt6Quick3DRuntimeRender.so.6:_ZN25QSSGBuiltInRhiShaderCache20getRhiParticleShaderEN19QSSGRenderParticles12FeatureLevelE@@Qt_6_PRIVATE_API
libQt6Quick3DRuntimeRender.so.6:_ZN25QSSGBuiltInRhiShaderCache22getRhiSimpleQuadShaderEv@@Qt_6_PRIVATE_API
libQt6Quick3DRuntimeRender.so.6:_ZN25QSSGBuiltInRhiShaderCache22getRhiSkyBoxCubeShaderEv@@Qt_6_PRIVATE_API
libQt6Quick3DRuntimeRender.so.6:_ZN25QSSGBuiltInRhiShaderCache23getRhiDebugObjectShaderEv@@Qt_6_PRIVATE_API
libQt6Quick3DRuntimeRender.so.6:_ZN25QSSGBuiltInRhiShaderCache24getRhiTexturedQuadShaderEv@@Qt_6_PRIVATE_API
libQt6Quick3DRuntimeRender.so.6:_ZN25QSSGBuiltInRhiShaderCache25getRhiProgressiveAAShaderEv@@Qt_6_PRIVATE_API
libQt6Quick3DRuntimeRender.so.6:_ZN25QSSGBuiltInRhiShaderCache26getRhiEnvironmentmapShaderEv@@Qt_6_PRIVATE_API
libQt6Quick3DRuntimeRender.so.6:_ZN25QSSGBuiltInRhiShaderCache26getRhiLightmapDilateShaderEv@@Qt_6_PRIVATE_API
libQt6Quick3DRuntimeRender.so.6:_ZN25QSSGBuiltInRhiShaderCache30getRhiCubemapShadowBlurXShaderEv@@Qt_6_PRIVATE_API
libQt6Quick3DRuntimeRender.so.6:_ZN25QSSGBuiltInRhiShaderCache30getRhiCubemapShadowBlurYShaderEv@@Qt_6_PRIVATE_API
libQt6Quick3DRuntimeRender.so.6:_ZN25QSSGBuiltInRhiShaderCache30getRhiSupersampleResolveShaderEv@@Qt_6_PRIVATE_API
libQt6Quick3DRuntimeRender.so.6:_ZN25QSSGBuiltInRhiShaderCache35getRhiLightmapUVRasterizationShaderENS_33LightmapUVRasterizationShaderModeE@@Qt_6_PRIVATE_API
libQt6Quick3DRuntimeRender.so.6:_ZN25QSSGBuiltInRhiShaderCache35getRhiOrthographicShadowBlurXShaderEv@@Qt_6_PRIVATE_API
libQt6Quick3DRuntimeRender.so.6:_ZN25QSSGBuiltInRhiShaderCache35getRhiOrthographicShadowBlurYShaderEv@@Qt_6_PRIVATE_API
libQt6Quick3DRuntimeRender.so.6:_ZN25QSSGBuiltInRhiShaderCache35getRhienvironmentmapPreFilterShaderEb@@Qt_6_PRIVATE_API
libQt6Quick3DRuntimeRender.so.6:_ZN25QSSGBuiltInRhiShaderCache36getRhiReflectionprobePreFilterShaderEv@@Qt_6_PRIVATE_API
libQt6Quick3DRuntimeRender.so.6:_ZN25QSSGRenderDefaultMaterial10clearDirtyEv@@Qt_6_PRIVATE_API
libQt6Quick3DRuntimeRender.so.6:_ZN25QSSGRenderDefaultMaterialC1EN21QSSGRenderGraphObject4TypeE@@Qt_6_PRIVATE_API
libQt6Quick3DRuntimeRender.so.6:_ZN25QSSGRenderDefaultMaterialC2EN21QSSGRenderGraphObject4TypeE@@Qt_6_PRIVATE_API
libQt6Quick3DRuntimeRender.so.6:_ZN25QSSGRenderDefaultMaterialD0Ev@@Qt_6_PRIVATE_API
libQt6Quick3DRuntimeRender.so.6:_ZN25QSSGRenderDefaultMaterialD1Ev@@Qt_6_PRIVATE_API
libQt6Quick3DRuntimeRender.so.6:_ZN25QSSGRenderDefaultMaterialD2Ev@@Qt_6_PRIVATE_API
libQt6Quick3DRuntimeRender.so.6:_ZN25QSSGRenderReflectionProbeC1Ev@@Qt_6_PRIVATE_API
libQt6Quick3DRuntimeRender.so.6:_ZN25QSSGRenderReflectionProbeC2Ev@@Qt_6_PRIVATE_API
libQt6Quick3DRuntimeRender.so.6:_ZN25QSSGShaderMaterialAdapter10isUnshadedEv@@Qt_6_PRIVATE_API
libQt6Quick3DRuntimeRender.so.6:_ZN25QSSGShaderMaterialAdapter19customShaderSnippetEN15QSSGShaderCache10ShaderTypeER24QSSGShaderLibraryManager@@Qt_6_PRIVATE_API
libQt6Quick3DRuntimeRender.so.6:_ZN25QSSGShaderMaterialAdapter19usesSharedVariablesEv@@Qt_6_PRIVATE_API
libQt6Quick3DRuntimeRender.so.6:_ZN25QSSGShaderMaterialAdapter22hasCustomShaderSnippetEN15QSSGShaderCache10ShaderTypeE@@Qt_6_PRIVATE_API
libQt6Quick3DRuntimeRender.so.6:_ZN25QSSGShaderMaterialAdapter23hasCustomShaderFunctionEN15QSSGShaderCache10ShaderTypeERK10QByteArrayR24QSSGShaderLibraryManager@@Qt_6_PRIVATE_API
libQt6Quick3DRuntimeRender.so.6:_ZN25QSSGShaderMaterialAdapter25setCustomPropertyUniformsEPcR21QSSGRhiShaderPipelineRK26QSSGRenderContextInterface@@Qt_6_PRIVATE_API
libQt6Quick3DRuntimeRender.so.6:_ZN25QSSGShaderMaterialAdapter6createERK21QSSGRenderGraphObject@@Qt_6_PRIVATE_API
libQt6Quick3DRuntimeRender.so.6:_ZN25QSSGShaderMaterialAdapterD0Ev@@Qt_6_PRIVATE_API
libQt6Quick3DRuntimeRender.so.6:_ZN25QSSGShaderMaterialAdapterD1Ev@@Qt_6_PRIVATE_API
libQt6Quick3DRuntimeRender.so.6:_ZN25QSSGShaderMaterialAdapterD2Ev@@Qt_6_PRIVATE_API
libQt6Quick3DRuntimeRender.so.6:_ZN25QSSGVertexShaderGeneratorC1Ev@@Qt_6_PRIVATE_API
libQt6Quick3DRuntimeRender.so.6:_ZN25QSSGVertexShaderGeneratorC2Ev@@Qt_6_PRIVATE_API
libQt6Quick3DRuntimeRender.so.6:_ZN26QSSGRenderContextInterface22releaseCachedResourcesEv@@Qt_6_PRIVATE_API
libQt6Quick3DRuntimeRender.so.6:_ZN26QSSGRenderContextInterface4initEv@@Qt_6_PRIVATE_API
libQt6Quick3DRuntimeRender.so.6:_ZN26QSSGRenderContextInterfaceC1EP4QRhi@@Qt_6_PRIVATE_API
libQt6Quick3DRuntimeRender.so.6:_ZN26QSSGRenderContextInterfaceC1ESt10unique_ptrI17QSSGBufferManagerSt14default_deleteIS1_EES0_I12QSSGRendererS2_IS5_EESt10shared_ptrI24QSSGShaderLibraryManagerES0_I15QSSGShaderCacheS2_ISB_EES0_I24QSSGCustomMaterialSystemS2_ISE_EES0_I20QSSGProgramGeneratorS2_ISH_EES0_I14QSSGRhiContextS2_ISK_EES0_I19QSSGDebugDrawSystemS2_ISN_EE@@Qt_6_PRIVATE_API
libQt6Quick3DRuntimeRender.so.6:_ZN26QSSGRenderContextInterfaceC2EP4QRhi@@Qt_6_PRIVATE_API
libQt6Quick3DRuntimeRender.so.6:_ZN26QSSGRenderContextInterfaceC2ESt10unique_ptrI17QSSGBufferManagerSt14default_deleteIS1_EES0_I12QSSGRendererS2_IS5_EESt10shared_ptrI24QSSGShaderLibraryManagerES0_I15QSSGShaderCacheS2_ISB_EES0_I24QSSGCustomMaterialSystemS2_ISE_EES0_I20QSSGProgramGeneratorS2_ISH_EES0_I14QSSGRhiContextS2_ISK_EES0_I19QSSGDebugDrawSystemS2_ISN_EE@@Qt_6_PRIVATE_API
libQt6Quick3DRuntimeRender.so.6:_ZN26QSSGRenderContextInterfaceD1Ev@@Qt_6_PRIVATE_API
libQt6Quick3DRuntimeRender.so.6:_ZN26QSSGRenderContextInterfaceD2Ev@@Qt_6_PRIVATE_API
libQt6Quick3DRuntimeRender.so.6:_ZN26QSSGRenderExtensionHelpers20registerRenderResultERK13QSSGFrameData15QSSGExtensionIdP11QRhiTexture@@Qt_6_PRIVATE_API
libQt6Quick3DRuntimeRender.so.6:_ZN27QSSGFragmentShaderGenerator20addShaderIncomingMapEv@@Qt_6_PRIVATE_API
libQt6Quick3DRuntimeRender.so.6:_ZN27QSSGFragmentShaderGenerator20addShaderOutgoingMapEv@@Qt_6_PRIVATE_API
libQt6Quick3DRuntimeRender.so.6:_ZN27QSSGFragmentShaderGeneratorC1Ev@@Qt_6_PRIVATE_API
libQt6Quick3DRuntimeRender.so.6:_ZN27QSSGFragmentShaderGeneratorC2Ev@@Qt_6_PRIVATE_API
libQt6Quick3DRuntimeRender.so.6:_ZN27QSSGMaterialShaderGenerator14getSamplerNameEN19QSSGRenderableImage4TypeE@@Qt_6_PRIVATE_API
libQt6Quick3DRuntimeRender.so.6:_ZN27QSSGMaterialShaderGenerator22vertexMainArgumentListEv@@Qt_6_PRIVATE_API
libQt6Quick3DRuntimeRender.so.6:_ZN27QSSGMaterialShaderGenerator24setRhiMaterialPropertiesERK26QSSGRenderContextInterfaceR21QSSGRhiShaderPipelinePcP28QSSGRhiGraphicsPipelineStateRK21QSSGRenderGraphObjectRK28QSSGShaderDefaultMaterialKeyRK38QSSGShaderDefaultMaterialKeyPropertiesRK16QSSGRenderCameraRK10QMatrix4x4RK14QGenericMatrixILi3ELi3EfESM_SM_SM_SM_RK12QSSGDataViewIfEP19QSSGRenderableImagefRK19QSSGLayerRenderDataRKSR_I15QSSGShaderLightERK25QSSGShaderReflectionProbebbPK9QVector2DP11QRhiTexture@@Qt_6_PRIVATE_API
libQt6Quick3DRuntimeRender.so.6:_ZN27QSSGMaterialShaderGenerator25generateMaterialRhiShaderERK10QByteArrayR26QSSGMaterialVertexPipelineRK28QSSGShaderDefaultMaterialKeyRK38QSSGShaderDefaultMaterialKeyPropertiesRK18QSSGShaderFeaturesRK21QSSGRenderGraphObjectRK12QSSGDataViewI15QSSGShaderLightEP19QSSGRenderableImageR24QSSGShaderLibraryManagerR15QSSGShaderCache@@Qt_6_PRIVATE_API
libQt6Quick3DRuntimeRender.so.6:_ZN27QSSGMaterialShaderGenerator25postProcessorArgumentListEv@@Qt_6_PRIVATE_API
libQt6Quick3DRuntimeRender.so.6:_ZN27QSSGMaterialShaderGenerator29iblProbeProcessorArgumentListEv@@Qt_6_PRIVATE_API
libQt6Quick3DRuntimeRender.so.6:_ZN27QSSGMaterialShaderGenerator30shadedFragmentMainArgumentListEv@@Qt_6_PRIVATE_API
libQt6Quick3DRuntimeRender.so.6:_ZN27QSSGMaterialShaderGenerator30spotLightProcessorArgumentListEv@@Qt_6_PRIVATE_API
libQt6Quick3DRuntimeRender.so.6:_ZN27QSSGMaterialShaderGenerator31pointLightProcessorArgumentListEv@@Qt_6_PRIVATE_API
libQt6Quick3DRuntimeRender.so.6:_ZN27QSSGMaterialShaderGenerator31vertexInstancedMainArgumentListEv@@Qt_6_PRIVATE_API
libQt6Quick3DRuntimeRender.so.6:_ZN27QSSGMaterialShaderGenerator33ambientLightProcessorArgumentListEv@@Qt_6_PRIVATE_API
libQt6Quick3DRuntimeRender.so.6:_ZN27QSSGMaterialShaderGenerator34specularLightProcessorArgumentListEv@@Qt_6_PRIVATE_API
libQt6Quick3DRuntimeRender.so.6:_ZN27QSSGMaterialShaderGenerator37directionalLightProcessorArgumentListEv@@Qt_6_PRIVATE_API
libQt6Quick3DRuntimeRender.so.6:_ZN31QSSGShaderCustomMaterialAdapter10bumpAmountEv@@Qt_6_PRIVATE_API
libQt6Quick3DRuntimeRender.so.6:_ZN31QSSGShaderCustomMaterialAdapter10isUnshadedEv@@Qt_6_PRIVATE_API
libQt6Quick3DRuntimeRender.so.6:_ZN31QSSGShaderCustomMaterialAdapter11alphaCutOffEv@@Qt_6_PRIVATE_API
libQt6Quick3DRuntimeRender.so.6:_ZN31QSSGShaderCustomMaterialAdapter11hasLightingEv@@Qt_6_PRIVATE_API
libQt6Quick3DRuntimeRender.so.6:_ZN31QSSGShaderCustomMaterialAdapter12fresnelPowerEv@@Qt_6_PRIVATE_API
libQt6Quick3DRuntimeRender.so.6:_ZN31QSSGShaderCustomMaterialAdapter12heightAmountEv@@Qt_6_PRIVATE_API
libQt6Quick3DRuntimeRender.so.6:_ZN31QSSGShaderCustomMaterialAdapter12isPrincipledEv@@Qt_6_PRIVATE_API
libQt6Quick3DRuntimeRender.so.6:_ZN31QSSGShaderCustomMaterialAdapter12specularTintEv@@Qt_6_PRIVATE_API
libQt6Quick3DRuntimeRender.so.6:_ZN31QSSGShaderCustomMaterialAdapter13emissiveColorEv@@Qt_6_PRIVATE_API
libQt6Quick3DRuntimeRender.so.6:_ZN31QSSGShaderCustomMaterialAdapter13specularModelEv@@Qt_6_PRIVATE_API
libQt6Quick3DRuntimeRender.so.6:_ZN31QSSGShaderCustomMaterialAdapter14specularAmountEv@@Qt_6_PRIVATE_API
libQt6Quick3DRuntimeRender.so.6:_ZN31QSSGShaderCustomMaterialAdapter15clearcoatAmountEv@@Qt_6_PRIVATE_API
libQt6Quick3DRuntimeRender.so.6:_ZN31QSSGShaderCustomMaterialAdapter15metalnessAmountEv@@Qt_6_PRIVATE_API
libQt6Quick3DRuntimeRender.so.6:_ZN31QSSGShaderCustomMaterialAdapter15occlusionAmountEv@@Qt_6_PRIVATE_API
libQt6Quick3DRuntimeRender.so.6:_ZN31QSSGShaderCustomMaterialAdapter15thicknessFactorEv@@Qt_6_PRIVATE_API
libQt6Quick3DRuntimeRender.so.6:_ZN31QSSGShaderCustomMaterialAdapter16attenuationColorEv@@Qt_6_PRIVATE_API
libQt6Quick3DRuntimeRender.so.6:_ZN31QSSGShaderCustomMaterialAdapter16diffuseLightWrapEv@@Qt_6_PRIVATE_API
libQt6Quick3DRuntimeRender.so.6:_ZN31QSSGShaderCustomMaterialAdapter16isSpecularGlossyEv@@Qt_6_PRIVATE_API
libQt6Quick3DRuntimeRender.so.6:_ZN31QSSGShaderCustomMaterialAdapter16maxHeightSamplesEv@@Qt_6_PRIVATE_API
libQt6Quick3DRuntimeRender.so.6:_ZN31QSSGShaderCustomMaterialAdapter16minHeightSamplesEv@@Qt_6_PRIVATE_API
libQt6Quick3DRuntimeRender.so.6:_ZN31QSSGShaderCustomMaterialAdapter17isSpecularEnabledEv@@Qt_6_PRIVATE_API
libQt6Quick3DRuntimeRender.so.6:_ZN31QSSGShaderCustomMaterialAdapter17specularRoughnessEv@@Qt_6_PRIVATE_API
libQt6Quick3DRuntimeRender.so.6:_ZN31QSSGShaderCustomMaterialAdapter18isClearcoatEnabledEv@@Qt_6_PRIVATE_API
libQt6Quick3DRuntimeRender.so.6:_ZN31QSSGShaderCustomMaterialAdapter18isMetalnessEnabledEv@@Qt_6_PRIVATE_API
libQt6Quick3DRuntimeRender.so.6:_ZN31QSSGShaderCustomMaterialAdapter18translucentFallOffEv@@Qt_6_PRIVATE_API
libQt6Quick3DRuntimeRender.so.6:_ZN31QSSGShaderCustomMaterialAdapter18transmissionFactorEv@@Qt_6_PRIVATE_API
libQt6Quick3DRuntimeRender.so.6:_ZN31QSSGShaderCustomMaterialAdapter18usesCustomMorphingEv@@Qt_6_PRIVATE_API
libQt6Quick3DRuntimeRender.so.6:_ZN31QSSGShaderCustomMaterialAdapter18usesCustomSkinningEv@@Qt_6_PRIVATE_API
libQt6Quick3DRuntimeRender.so.6:_ZN31QSSGShaderCustomMaterialAdapter19attenuationDistanceEv@@Qt_6_PRIVATE_API
libQt6Quick3DRuntimeRender.so.6:_ZN31QSSGShaderCustomMaterialAdapter19customShaderSnippetEN15QSSGShaderCache10ShaderTypeER24QSSGShaderLibraryManager@@Qt_6_PRIVATE_API
libQt6Quick3DRuntimeRender.so.6:_ZN31QSSGShaderCustomMaterialAdapter19prepareCustomShaderER10QByteArrayRKS0_N15QSSGShaderCache10ShaderTypeERK15QVarLengthArrayISt4pairIS0_S0_ELx16EESB_SB_@@Qt_6_PRIVATE_API
libQt6Quick3DRuntimeRender.so.6:_ZN31QSSGShaderCustomMaterialAdapter19usesSharedVariablesEv@@Qt_6_PRIVATE_API
libQt6Quick3DRuntimeRender.so.6:_ZN31QSSGShaderCustomMaterialAdapter21isTransmissionEnabledEv@@Qt_6_PRIVATE_API
libQt6Quick3DRuntimeRender.so.6:_ZN31QSSGShaderCustomMaterialAdapter21isVertexColorsEnabledEv@@Qt_6_PRIVATE_API
libQt6Quick3DRuntimeRender.so.6:_ZN31QSSGShaderCustomMaterialAdapter22hasCustomShaderSnippetEN15QSSGShaderCache10ShaderTypeE@@Qt_6_PRIVATE_API
libQt6Quick3DRuntimeRender.so.6:_ZN31QSSGShaderCustomMaterialAdapter23hasCustomShaderFunctionEN15QSSGShaderCache10ShaderTypeERK10QByteArrayR24QSSGShaderLibraryManager@@Qt_6_PRIVATE_API
libQt6Quick3DRuntimeRender.so.6:_ZN31QSSGShaderCustomMaterialAdapter24clearcoatRoughnessAmountEv@@Qt_6_PRIVATE_API
libQt6Quick3DRuntimeRender.so.6:_ZN31QSSGShaderCustomMaterialAdapter25setCustomPropertyUniformsEPcR21QSSGRhiShaderPipelineRK26QSSGRenderContextInterface@@Qt_6_PRIVATE_API
libQt6Quick3DRuntimeRender.so.6:_ZN31QSSGShaderCustomMaterialAdapter3iorEv@@Qt_6_PRIVATE_API
libQt6Quick3DRuntimeRender.so.6:_ZN31QSSGShaderCustomMaterialAdapter5colorEv@@Qt_6_PRIVATE_API
libQt6Quick3DRuntimeRender.so.6:_ZN31QSSGShaderCustomMaterialAdapter8iblProbeEv@@Qt_6_PRIVATE_API
libQt6Quick3DRuntimeRender.so.6:_ZN31QSSGShaderCustomMaterialAdapter9alphaModeEv@@Qt_6_PRIVATE_API
libQt6Quick3DRuntimeRender.so.6:_ZN31QSSGShaderCustomMaterialAdapter9lineWidthEv@@Qt_6_PRIVATE_API
libQt6Quick3DRuntimeRender.so.6:_ZN31QSSGShaderCustomMaterialAdapter9pointSizeEv@@Qt_6_PRIVATE_API
libQt6Quick3DRuntimeRender.so.6:_ZN31QSSGShaderCustomMaterialAdapterC1ERK24QSSGRenderCustomMaterial@@Qt_6_PRIVATE_API
libQt6Quick3DRuntimeRender.so.6:_ZN31QSSGShaderCustomMaterialAdapterC2ERK24QSSGRenderCustomMaterial@@Qt_6_PRIVATE_API
libQt6Quick3DRuntimeRender.so.6:_ZN32QSSGRhiShaderResourceBindingList10addTextureEi6QFlagsIN25QRhiShaderResourceBinding9StageFlagEEP11QRhiTextureP11QRhiSampler@@Qt_6_PRIVATE_API
libQt6Quick3DRuntimeRender.so.6:_ZN32QSSGRhiShaderResourceBindingList16addUniformBufferEi6QFlagsIN25QRhiShaderResourceBinding9StageFlagEEP10QRhiBufferii@@Qt_6_PRIVATE_API
libQt6Quick3DRuntimeRender.so.6:_ZN32QSSGShaderDefaultMaterialAdapter10bumpAmountEv@@Qt_6_PRIVATE_API
libQt6Quick3DRuntimeRender.so.6:_ZN32QSSGShaderDefaultMaterialAdapter11alphaCutOffEv@@Qt_6_PRIVATE_API
libQt6Quick3DRuntimeRender.so.6:_ZN32QSSGShaderDefaultMaterialAdapter11hasLightingEv@@Qt_6_PRIVATE_API
libQt6Quick3DRuntimeRender.so.6:_ZN32QSSGShaderDefaultMaterialAdapter12fresnelPowerEv@@Qt_6_PRIVATE_API
libQt6Quick3DRuntimeRender.so.6:_ZN32QSSGShaderDefaultMaterialAdapter12heightAmountEv@@Qt_6_PRIVATE_API
libQt6Quick3DRuntimeRender.so.6:_ZN32QSSGShaderDefaultMaterialAdapter12isPrincipledEv@@Qt_6_PRIVATE_API
libQt6Quick3DRuntimeRender.so.6:_ZN32QSSGShaderDefaultMaterialAdapter12specularTintEv@@Qt_6_PRIVATE_API
libQt6Quick3DRuntimeRender.so.6:_ZN32QSSGShaderDefaultMaterialAdapter13emissiveColorEv@@Qt_6_PRIVATE_API
libQt6Quick3DRuntimeRender.so.6:_ZN32QSSGShaderDefaultMaterialAdapter13specularModelEv@@Qt_6_PRIVATE_API
libQt6Quick3DRuntimeRender.so.6:_ZN32QSSGShaderDefaultMaterialAdapter14specularAmountEv@@Qt_6_PRIVATE_API
libQt6Quick3DRuntimeRender.so.6:_ZN32QSSGShaderDefaultMaterialAdapter15clearcoatAmountEv@@Qt_6_PRIVATE_API
libQt6Quick3DRuntimeRender.so.6:_ZN32QSSGShaderDefaultMaterialAdapter15metalnessAmountEv@@Qt_6_PRIVATE_API
libQt6Quick3DRuntimeRender.so.6:_ZN32QSSGShaderDefaultMaterialAdapter15occlusionAmountEv@@Qt_6_PRIVATE_API
libQt6Quick3DRuntimeRender.so.6:_ZN32QSSGShaderDefaultMaterialAdapter15thicknessFactorEv@@Qt_6_PRIVATE_API
libQt6Quick3DRuntimeRender.so.6:_ZN32QSSGShaderDefaultMaterialAdapter16attenuationColorEv@@Qt_6_PRIVATE_API
libQt6Quick3DRuntimeRender.so.6:_ZN32QSSGShaderDefaultMaterialAdapter16diffuseLightWrapEv@@Qt_6_PRIVATE_API
libQt6Quick3DRuntimeRender.so.6:_ZN32QSSGShaderDefaultMaterialAdapter16isSpecularGlossyEv@@Qt_6_PRIVATE_API
libQt6Quick3DRuntimeRender.so.6:_ZN32QSSGShaderDefaultMaterialAdapter16maxHeightSamplesEv@@Qt_6_PRIVATE_API
libQt6Quick3DRuntimeRender.so.6:_ZN32QSSGShaderDefaultMaterialAdapter16minHeightSamplesEv@@Qt_6_PRIVATE_API
libQt6Quick3DRuntimeRender.so.6:_ZN32QSSGShaderDefaultMaterialAdapter17isSpecularEnabledEv@@Qt_6_PRIVATE_API
libQt6Quick3DRuntimeRender.so.6:_ZN32QSSGShaderDefaultMaterialAdapter17specularRoughnessEv@@Qt_6_PRIVATE_API
libQt6Quick3DRuntimeRender.so.6:_ZN32QSSGShaderDefaultMaterialAdapter18isClearcoatEnabledEv@@Qt_6_PRIVATE_API
libQt6Quick3DRuntimeRender.so.6:_ZN32QSSGShaderDefaultMaterialAdapter18isMetalnessEnabledEv@@Qt_6_PRIVATE_API
libQt6Quick3DRuntimeRender.so.6:_ZN32QSSGShaderDefaultMaterialAdapter18translucentFallOffEv@@Qt_6_PRIVATE_API
libQt6Quick3DRuntimeRender.so.6:_ZN32QSSGShaderDefaultMaterialAdapter18transmissionFactorEv@@Qt_6_PRIVATE_API
libQt6Quick3DRuntimeRender.so.6:_ZN32QSSGShaderDefaultMaterialAdapter18usesCustomMorphingEv@@Qt_6_PRIVATE_API
libQt6Quick3DRuntimeRender.so.6:_ZN32QSSGShaderDefaultMaterialAdapter18usesCustomSkinningEv@@Qt_6_PRIVATE_API
libQt6Quick3DRuntimeRender.so.6:_ZN32QSSGShaderDefaultMaterialAdapter19attenuationDistanceEv@@Qt_6_PRIVATE_API
libQt6Quick3DRuntimeRender.so.6:_ZN32QSSGShaderDefaultMaterialAdapter21isTransmissionEnabledEv@@Qt_6_PRIVATE_API
libQt6Quick3DRuntimeRender.so.6:_ZN32QSSGShaderDefaultMaterialAdapter21isVertexColorsEnabledEv@@Qt_6_PRIVATE_API
libQt6Quick3DRuntimeRender.so.6:_ZN32QSSGShaderDefaultMaterialAdapter24clearcoatRoughnessAmountEv@@Qt_6_PRIVATE_API
libQt6Quick3DRuntimeRender.so.6:_ZN32QSSGShaderDefaultMaterialAdapter3iorEv@@Qt_6_PRIVATE_API
libQt6Quick3DRuntimeRender.so.6:_ZN32QSSGShaderDefaultMaterialAdapter5colorEv@@Qt_6_PRIVATE_API
libQt6Quick3DRuntimeRender.so.6:_ZN32QSSGShaderDefaultMaterialAdapter8iblProbeEv@@Qt_6_PRIVATE_API
libQt6Quick3DRuntimeRender.so.6:_ZN32QSSGShaderDefaultMaterialAdapter9alphaModeEv@@Qt_6_PRIVATE_API
libQt6Quick3DRuntimeRender.so.6:_ZN32QSSGShaderDefaultMaterialAdapter9lineWidthEv@@Qt_6_PRIVATE_API
libQt6Quick3DRuntimeRender.so.6:_ZN32QSSGShaderDefaultMaterialAdapter9pointSizeEv@@Qt_6_PRIVATE_API
libQt6Quick3DRuntimeRender.so.6:_ZN32QSSGShaderDefaultMaterialAdapterC1ERK25QSSGRenderDefaultMaterial@@Qt_6_PRIVATE_API
libQt6Quick3DRuntimeRender.so.6:_ZN32QSSGShaderDefaultMaterialAdapterC2ERK25QSSGRenderDefaultMaterial@@Qt_6_PRIVATE_API
libQt6Quick3DRuntimeRender.so.6:_ZNK12QSSGRenderer15rhiCubeRendererEv@@Qt_6_PRIVATE_API
libQt6Quick3DRuntimeRender.so.6:_ZNK12QSSGRenderer15rhiQuadRendererEv@@Qt_6_PRIVATE_API
libQt6Quick3DRuntimeRender.so.6:_ZNK13QSSGFrameData10getCurrentEv@@Qt_6_PRIVATE_API
libQt6Quick3DRuntimeRender.so.6:_ZNK13QSSGFrameData12activeCameraEv@@Qt_6_PRIVATE_API
libQt6Quick3DRuntimeRender.so.6:_ZNK13QSSGFrameData15getRenderResultENS_12RenderResultE@@Qt_6_PRIVATE_API
libQt6Quick3DRuntimeRender.so.6:_ZNK13QSSGFrameData16contextInterfaceEv@@Qt_6_PRIVATE_API
libQt6Quick3DRuntimeRender.so.6:_ZNK13QSSGFrameData16getPipelineStateEv@@Qt_6_PRIVATE_API
libQt6Quick3DRuntimeRender.so.6:_ZNK14QSSGRenderNode12getDirectionEv@@Qt_6_PRIVATE_API
libQt6Quick3DRuntimeRender.so.6:_ZNK14QSSGRenderNode14getChildBoundsER17QSSGBufferManager@@Qt_6_PRIVATE_API
libQt6Quick3DRuntimeRender.so.6:_ZNK14QSSGRenderNode14getGlobalPivotEv@@Qt_6_PRIVATE_API
libQt6Quick3DRuntimeRender.so.6:_ZNK14QSSGRenderNode21calculateNormalMatrixEv@@Qt_6_PRIVATE_API
libQt6Quick3DRuntimeRender.so.6:_ZNK14QSSGRenderNode26getScalingCorrectDirectionEv@@Qt_6_PRIVATE_API
libQt6Quick3DRuntimeRender.so.6:_ZNK14QSSGRenderNode27calculateMVPAndNormalMatrixERK10QMatrix4x4RS0_R14QGenericMatrixILi3ELi3EfE@@Qt_6_PRIVATE_API
libQt6Quick3DRuntimeRender.so.6:_ZNK14QSSGRenderNode9getBoundsER17QSSGBufferManagerb@@Qt_6_PRIVATE_API
libQt6Quick3DRuntimeRender.so.6:_ZNK14QSSGRhiContext12renderTargetEv@@Qt_6_PRIVATE_API
libQt6Quick3DRuntimeRender.so.6:_ZNK14QSSGRhiContext13commandBufferEv@@Qt_6_PRIVATE_API
libQt6Quick3DRuntimeRender.so.6:_ZNK14QSSGRhiContext15commonPassFlagsEv@@Qt_6_PRIVATE_API
libQt6Quick3DRuntimeRender.so.6:_ZNK14QSSGRhiContext19mainPassSampleCountEv@@Qt_6_PRIVATE_API
libQt6Quick3DRuntimeRender.so.6:_ZNK14QSSGRhiContext24mainRenderPassDescriptorEv@@Qt_6_PRIVATE_API
libQt6Quick3DRuntimeRender.so.6:_ZNK14QSSGRhiContext3rhiEv@@Qt_6_PRIVATE_API
libQt6Quick3DRuntimeRender.so.6:_ZNK14QSSGRhiContext7isValidEv@@Qt_6_PRIVATE_API
libQt6Quick3DRuntimeRender.so.6:_ZNK15QSSGRenderImage24isImageTransformIdentityEv@@Qt_6_PRIVATE_API
libQt6Quick3DRuntimeRender.so.6:_ZNK15QSSGRenderLayer9hasEffectEP16QSSGRenderEffect@@Qt_6_PRIVATE_API
libQt6Quick3DRuntimeRender.so.6:_ZNK16QSSGRenderCamera11verticalFovERK6QRectF@@Qt_6_PRIVATE_API
libQt6Quick3DRuntimeRender.so.6:_ZNK16QSSGRenderCamera11verticalFovEf@@Qt_6_PRIVATE_API
libQt6Quick3DRuntimeRender.so.6:_ZNK16QSSGRenderCamera19unprojectToPositionERK9QVector3DRK13QSSGRenderRay@@Qt_6_PRIVATE_API
libQt6Quick3DRuntimeRender.so.6:_ZNK16QSSGRenderCamera26getLevelOfDetailMultiplierEv@@Qt_6_PRIVATE_API
libQt6Quick3DRuntimeRender.so.6:_ZNK16QSSGRenderCamera26getOrthographicScaleFactorERK6QRectF@@Qt_6_PRIVATE_API
libQt6Quick3DRuntimeRender.so.6:_ZNK16QSSGRenderCamera29calculateViewProjectionMatrixER10QMatrix4x4@@Qt_6_PRIVATE_API
libQt6Quick3DRuntimeRender.so.6:_ZNK16QSSGRenderCamera41calculateViewProjectionWithoutTranslationEffR10QMatrix4x4@@Qt_6_PRIVATE_API
libQt6Quick3DRuntimeRender.so.6:_ZNK16QSSGRenderCamera9unprojectERK9QVector2DRK6QRectF@@Qt_6_PRIVATE_API
libQt6Quick3DRuntimeRender.so.6:_ZNK17QSSGBufferManager14getModelBoundsEPK15QSSGRenderModel@@Qt_6_PRIVATE_API
libQt6Quick3DRuntimeRender.so.6:_ZNK17QSSGBufferManager17getMeshForPickingERK15QSSGRenderModel@@Qt_6_PRIVATE_API
libQt6Quick3DRuntimeRender.so.6:_ZNK17QSSGLoadedTexture19scanForTransparencyEv@@Qt_6_PRIVATE_API
libQt6Quick3DRuntimeRender.so.6:_ZNK18QSSGParticleBuffer10bufferSizeEv@@Qt_6_PRIVATE_API
libQt6Quick3DRuntimeRender.so.6:_ZNK18QSSGParticleBuffer10sliceCountEv@@Qt_6_PRIVATE_API
libQt6Quick3DRuntimeRender.so.6:_ZNK18QSSGParticleBuffer11sliceStrideEv@@Qt_6_PRIVATE_API
libQt6Quick3DRuntimeRender.so.6:_ZNK18QSSGParticleBuffer13particleCountEv@@Qt_6_PRIVATE_API
libQt6Quick3DRuntimeRender.so.6:_ZNK18QSSGParticleBuffer17particlesPerSliceEv@@Qt_6_PRIVATE_API
libQt6Quick3DRuntimeRender.so.6:_ZNK18QSSGParticleBuffer4dataEv@@Qt_6_PRIVATE_API
libQt6Quick3DRuntimeRender.so.6:_ZNK18QSSGParticleBuffer4sizeEv@@Qt_6_PRIVATE_API
libQt6Quick3DRuntimeRender.so.6:_ZNK18QSSGParticleBuffer6boundsEv@@Qt_6_PRIVATE_API
libQt6Quick3DRuntimeRender.so.6:_ZNK18QSSGParticleBuffer6serialEv@@Qt_6_PRIVATE_API
libQt6Quick3DRuntimeRender.so.6:_ZNK18QSSGParticleBuffer7pointerEv@@Qt_6_PRIVATE_API
libQt6Quick3DRuntimeRender.so.6:_ZNK18QSSGParticleBuffer8segmentsEv@@Qt_6_PRIVATE_API
libQt6Quick3DRuntimeRender.so.6:_ZNK18QSSGRenderGeometry11indexBufferEv@@Qt_6_PRIVATE_API
libQt6Quick3DRuntimeRender.so.6:_ZNK18QSSGRenderGeometry12generationIdEv@@Qt_6_PRIVATE_API
libQt6Quick3DRuntimeRender.so.6:_ZNK18QSSGRenderGeometry12vertexBufferEv@@Qt_6_PRIVATE_API
libQt6Quick3DRuntimeRender.so.6:_ZNK18QSSGRenderGeometry13primitiveTypeEv@@Qt_6_PRIVATE_API
libQt6Quick3DRuntimeRender.so.6:_ZNK18QSSGRenderGeometry14attributeCountEv@@Qt_6_PRIVATE_API
libQt6Quick3DRuntimeRender.so.6:_ZNK18QSSGRenderGeometry6strideEv@@Qt_6_PRIVATE_API
libQt6Quick3DRuntimeRender.so.6:_ZNK18QSSGRenderGeometry8meshDataEv@@Qt_6_PRIVATE_API
libQt6Quick3DRuntimeRender.so.6:_ZNK18QSSGRenderGeometry9attributeEi@@Qt_6_PRIVATE_API
libQt6Quick3DRuntimeRender.so.6:_ZNK18QSSGRenderGeometry9boundsMaxEv@@Qt_6_PRIVATE_API
libQt6Quick3DRuntimeRender.so.6:_ZNK18QSSGRenderGeometry9boundsMinEv@@Qt_6_PRIVATE_API
libQt6Quick3DRuntimeRender.so.6:_ZNK19QSSGDebugDrawSystem10hasContentEv@@Qt_6_PRIVATE_API
libQt6Quick3DRuntimeRender.so.6:_ZNK19QSSGLayerRenderData16contextInterfaceEv@@Qt_6_PRIVATE_API
libQt6Quick3DRuntimeRender.so.6:_ZNK19QSSGLayerRenderData17getBonemapTextureERK16QSSGModelContext@@Qt_6_PRIVATE_API
libQt6Quick3DRuntimeRender.so.6:_ZNK19QSSGLayerRenderData18getLightmapTextureERK16QSSGModelContext@@Qt_6_PRIVATE_API
libQt6Quick3DRuntimeRender.so.6:_ZNK19QSSGLayerRenderData19getCameraRenderDataEPK16QSSGRenderCamera@@Qt_6_PRIVATE_API
libQt6Quick3DRuntimeRender.so.6:_ZNK19QSSGLayerRenderData9getCameraE12QSSGCameraId@@Qt_6_PRIVATE_API
libQt6Quick3DRuntimeRender.so.6:_ZNK19QSSGRenderExtension4modeEv@@Qt_6_PRIVATE_API
libQt6Quick3DRuntimeRender.so.6:_ZNK19QSSGRenderExtension5stageEv@@Qt_6_PRIVATE_API
libQt6Quick3DRuntimeRender.so.6:_ZNK19QSSGRhiContextStats9isEnabledEv@@Qt_6_PRIVATE_API
libQt6Quick3DRuntimeRender.so.6:_ZNK20QSSGProgramGenerator16getEnabledStagesEv@@Qt_6_PRIVATE_API
libQt6Quick3DRuntimeRender.so.6:_ZNK21QSSGRenderTextureData11textureDataEv@@Qt_6_PRIVATE_API
libQt6Quick3DRuntimeRender.so.6:_ZNK21QSSGRenderTextureData12generationIdEv@@Qt_6_PRIVATE_API
libQt6Quick3DRuntimeRender.so.6:_ZNK21QSSGRenderTextureData15hasTransparancyEv@@Qt_6_PRIVATE_API
libQt6Quick3DRuntimeRender.so.6:_ZNK21QSSGRenderTextureData4sizeEv@@Qt_6_PRIVATE_API
libQt6Quick3DRuntimeRender.so.6:_ZNK21QSSGRenderTextureData5depthEv@@Qt_6_PRIVATE_API
libQt6Quick3DRuntimeRender.so.6:_ZNK21QSSGRenderTextureData6formatEv@@Qt_6_PRIVATE_API
libQt6Quick3DRuntimeRender.so.6:_ZNK22QSSGStageGeneratorBase5stageEv@@Qt_6_PRIVATE_API
libQt6Quick3DRuntimeRender.so.6:_ZNK23QSSGRenderInstanceTable12getTransformEi@@Qt_6_PRIVATE_API
libQt6Quick3DRuntimeRender.so.6:_ZNK26QSSGRenderContextInterface10rhiContextEv@@Qt_6_PRIVATE_API
libQt6Quick3DRuntimeRender.so.6:_ZNK26QSSGRenderContextInterface11shaderCacheEv@@Qt_6_PRIVATE_API
libQt6Quick3DRuntimeRender.so.6:_ZNK26QSSGRenderContextInterface13bufferManagerEv@@Qt_6_PRIVATE_API
libQt6Quick3DRuntimeRender.so.6:_ZNK26QSSGRenderContextInterface15debugDrawSystemEv@@Qt_6_PRIVATE_API
libQt6Quick3DRuntimeRender.so.6:_ZNK26QSSGRenderContextInterface17perFrameAllocatorEv@@Qt_6_PRIVATE_API
libQt6Quick3DRuntimeRender.so.6:_ZNK26QSSGRenderContextInterface20customMaterialSystemEv@@Qt_6_PRIVATE_API
libQt6Quick3DRuntimeRender.so.6:_ZNK26QSSGRenderContextInterface20shaderLibraryManagerEv@@Qt_6_PRIVATE_API
libQt6Quick3DRuntimeRender.so.6:_ZNK26QSSGRenderContextInterface22shaderProgramGeneratorEv@@Qt_6_PRIVATE_API
libQt6Quick3DRuntimeRender.so.6:_ZNK26QSSGRenderContextInterface3rhiEv@@Qt_6_PRIVATE_API
libQt6Quick3DRuntimeRender.so.6:_ZNK26QSSGRenderContextInterface8rendererEv@@Qt_6_PRIVATE_API
libQt6Quick3DRuntimeRender.so.6:_Zls6QDebugN21QSSGRenderGraphObject4TypeE@@Qt_6_PRIVATE_API
libQt6Quick3DUtils.so.6:NonQt
libQt6Quick3DUtils.so.6:Qt_6
libQt6Quick3DUtils.so.6:Qt_6_PRIVATE_API
libQt6Quick3DUtils.so.6:_Z23qssgWriteAssertLocationPKc@@Qt_6
libQt6Quick3DUtils.so.6:_Z5qHashRKN14QQsbCollection5EntryEm@@Qt_6_PRIVATE_API
libQt6Quick3DUtils.so.6:_ZN11QSSGBounds37includeERK9QVector3D@@Qt_6_PRIVATE_API
libQt6Quick3DUtils.so.6:_ZN11QSSGBounds37includeERKS_@@Qt_6_PRIVATE_API
libQt6Quick3DUtils.so.6:_ZN11QSSGBounds39transformERK10QMatrix4x4@@Qt_6_PRIVATE_API
libQt6Quick3DUtils.so.6:_ZN11QSSGBounds39transformERK14QGenericMatrixILi3ELi3EfERKS_@@Qt_6_PRIVATE_API
libQt6Quick3DUtils.so.6:_ZN11QSSGMeshBVHD1Ev@@Qt_6_PRIVATE_API
libQt6Quick3DUtils.so.6:_ZN11QSSGMeshBVHD2Ev@@Qt_6_PRIVATE_API
libQt6Quick3DUtils.so.6:_ZN14QQsbCollection13readEndHeaderEP9QIODeviceP4QSetINS_5EntryEEPh@@Qt_6_PRIVATE_API
libQt6Quick3DUtils.so.6:_ZN14QQsbCollection13readEndHeaderER11QDataStreamPxPh@@Qt_6_PRIVATE_API
libQt6Quick3DUtils.so.6:_ZN14QQsbCollection14writeEndHeaderEP9QIODeviceRK4QSetINS_5EntryEE@@Qt_6_PRIVATE_API
libQt6Quick3DUtils.so.6:_ZN14QQsbCollection14writeEndHeaderER11QDataStreamxhy@@Qt_6_PRIVATE_API
libQt6Quick3DUtils.so.6:_ZN14QQsbCollection9EntryDesc11generateShaERK10QByteArrayRK4QMapIS1_bE@@Qt_6_PRIVATE_API
libQt6Quick3DUtils.so.6:_ZN14QQsbCollectionD0Ev@@Qt_6_PRIVATE_API
libQt6Quick3DUtils.so.6:_ZN14QQsbCollectionD1Ev@@Qt_6_PRIVATE_API
libQt6Quick3DUtils.so.6:_ZN14QQsbCollectionD2Ev@@Qt_6_PRIVATE_API
libQt6Quick3DUtils.so.6:_ZN16QQuick3DProfiler10initializeEP7QObject@@Qt_6_PRIVATE_API
libQt6Quick3DUtils.so.6:_ZN16QQuick3DProfiler11qt_metacallEN11QMetaObject4CallEiPPv@@Qt_6_PRIVATE_API
libQt6Quick3DUtils.so.6:_ZN16QQuick3DProfiler11qt_metacastEPKc@@Qt_6_PRIVATE_API
libQt6Quick3DUtils.so.6:_ZN16QQuick3DProfiler14registerObjectEPK7QObject@@Qt_6_PRIVATE_API
libQt6Quick3DUtils.so.6:_ZN16QQuick3DProfiler14registerStringERK10QByteArray@@Qt_6_PRIVATE_API
libQt6Quick3DUtils.so.6:_ZN16QQuick3DProfiler14reportDataImplEv@@Qt_6_PRIVATE_API
libQt6Quick3DUtils.so.6:_ZN16QQuick3DProfiler17stopProfilingImplEv@@Qt_6_PRIVATE_API
libQt6Quick3DUtils.so.6:_ZN16QQuick3DProfiler18startProfilingImplEy@@Qt_6_PRIVATE_API
libQt6Quick3DUtils.so.6:_ZN16QQuick3DProfiler8setTimerERK13QElapsedTimer@@Qt_6_PRIVATE_API
libQt6Quick3DUtils.so.6:_ZN16QQuick3DProfiler9dataReadyERK5QListI20QQuick3DProfilerDataERK5QHashIi10QByteArrayE@@Qt_6_PRIVATE_API
libQt6Quick3DUtils.so.6:_ZN16QQuick3DProfilerC1EP7QObject@@Qt_6_PRIVATE_API
libQt6Quick3DUtils.so.6:_ZN16QQuick3DProfilerC2EP7QObject@@Qt_6_PRIVATE_API
libQt6Quick3DUtils.so.6:_ZN16QQuick3DProfilerD0Ev@@Qt_6_PRIVATE_API
libQt6Quick3DUtils.so.6:_ZN16QQuick3DProfilerD1Ev@@Qt_6_PRIVATE_API
libQt6Quick3DUtils.so.6:_ZN16QQuick3DProfilerD2Ev@@Qt_6_PRIVATE_API
libQt6Quick3DUtils.so.6:_ZN18QSSGMeshBVHBuilder15getAverageValueERK11QSSGMeshBVHjjNS_4AxisE@@Qt_6_PRIVATE_API
libQt6Quick3DUtils.so.6:_ZN18QSSGMeshBVHBuilder15getOptimalSplitERK11QSSGMeshBVHRK11QSSGBounds3jj@@Qt_6_PRIVATE_API
libQt6Quick3DUtils.so.6:_ZN18QSSGMeshBVHBuilder19getLongestDimensionERK11QSSGBounds3@@Qt_6_PRIVATE_API
libQt6Quick3DUtils.so.6:_ZN18QSSGMeshBVHBuilder9buildTreeEv@@Qt_6_PRIVATE_API
libQt6Quick3DUtils.so.6:_ZN18QSSGMeshBVHBuilder9getBoundsERK11QSSGMeshBVHjj@@Qt_6_PRIVATE_API
libQt6Quick3DUtils.so.6:_ZN18QSSGMeshBVHBuilder9partitionER11QSSGMeshBVHjjRKNS_5SplitE@@Qt_6_PRIVATE_API
libQt6Quick3DUtils.so.6:_ZN18QSSGMeshBVHBuilder9splitNodeER11QSSGMeshBVHN15QSSGMeshBVHNode6HandleEjjj@@Qt_6_PRIVATE_API
libQt6Quick3DUtils.so.6:_ZN18QSSGMeshBVHBuilderC1ERK10QByteArrayiibibS2_23QSSGRenderComponentType@@Qt_6_PRIVATE_API
libQt6Quick3DUtils.so.6:_ZN18QSSGMeshBVHBuilderC1ERKN8QSSGMesh4MeshE@@Qt_6_PRIVATE_API
libQt6Quick3DUtils.so.6:_ZN18QSSGMeshBVHBuilderC2ERK10QByteArrayiibibS2_23QSSGRenderComponentType@@Qt_6_PRIVATE_API
libQt6Quick3DUtils.so.6:_ZN18QSSGMeshBVHBuilderC2ERKN8QSSGMesh4MeshE@@Qt_6_PRIVATE_API
libQt6Quick3DUtils.so.6:_ZN19QSSGBaseTypeHelpers11displayNameE25QSSGRenderTextureCubeFace@@Qt_6_PRIVATE_API
libQt6Quick3DUtils.so.6:_ZN19QSSGBaseTypeHelpers13getSizeOfTypeE23QSSGRenderComponentType@@Qt_6_PRIVATE_API
libQt6Quick3DUtils.so.6:_ZN19QSSGBaseTypeHelpers8toStringE16QSSGCullFaceMode@@Qt_6_PRIVATE_API
libQt6Quick3DUtils.so.6:_ZN19QSSGBaseTypeHelpers8toStringE17QSSGDepthDrawMode@@Qt_6_PRIVATE_API
libQt6Quick3DUtils.so.6:_ZN19QSSGBaseTypeHelpers8toStringE17QSSGRenderWinding@@Qt_6_PRIVATE_API
libQt6Quick3DUtils.so.6:_ZN19QSSGBaseTypeHelpers8toStringE23QSSGRenderComponentType@@Qt_6_PRIVATE_API
libQt6Quick3DUtils.so.6:_ZN19QSSGBaseTypeHelpers8toStringE24QSSGRenderTextureCoordOp@@Qt_6_PRIVATE_API
libQt6Quick3DUtils.so.6:_ZN19QSSGBaseTypeHelpers8toStringE25QSSGRenderTextureCubeFace@@Qt_6_PRIVATE_API
libQt6Quick3DUtils.so.6:_ZN19QSSGBaseTypeHelpers8toStringE25QSSGRenderTextureFilterOp@@Qt_6_PRIVATE_API
libQt6Quick3DUtils.so.6:_ZN19QSSGBaseTypeHelpers8toStringE26QSSGRenderTextureTypeValue@@Qt_6_PRIVATE_API
libQt6Quick3DUtils.so.6:_ZN19QSSGBaseTypeHelpers8toStringEN23QSSGRenderTextureFormat6FormatE@@Qt_6_PRIVATE_API
libQt6Quick3DUtils.so.6:_ZN20QQuick3DProfilerDataC1ExiixxRK5QListIiE@@Qt_6_PRIVATE_API
libQt6Quick3DUtils.so.6:_ZN20QQuick3DProfilerDataC2ExiixxRK5QListIiE@@Qt_6_PRIVATE_API
libQt6Quick3DUtils.so.6:_ZN22QQsbIODeviceCollection12extractEntryEN14QQsbCollection5EntryERNS0_9EntryDescE@@Qt_6_PRIVATE_API
libQt6Quick3DUtils.so.6:_ZN22QQsbIODeviceCollection3mapENS_7MapModeE@@Qt_6_PRIVATE_API
libQt6Quick3DUtils.so.6:_ZN22QQsbIODeviceCollection5unmapEv@@Qt_6_PRIVATE_API
libQt6Quick3DUtils.so.6:_ZN22QQsbIODeviceCollection8addEntryERK10QByteArrayRKN14QQsbCollection9EntryDescE@@Qt_6_PRIVATE_API
libQt6Quick3DUtils.so.6:_ZN22QQsbIODeviceCollection8dumpInfoER9QIODevice@@Qt_6_PRIVATE_API
libQt6Quick3DUtils.so.6:_ZN22QQsbIODeviceCollection8dumpInfoERK7QString@@Qt_6_PRIVATE_API
libQt6Quick3DUtils.so.6:_ZN22QQsbIODeviceCollection8dumpInfoEv@@Qt_6_PRIVATE_API
libQt6Quick3DUtils.so.6:_ZN22QQsbIODeviceCollectionC1ER9QIODevice@@Qt_6_PRIVATE_API
libQt6Quick3DUtils.so.6:_ZN22QQsbIODeviceCollectionC1ERK7QString@@Qt_6_PRIVATE_API
libQt6Quick3DUtils.so.6:_ZN22QQsbIODeviceCollectionC2ER9QIODevice@@Qt_6_PRIVATE_API
libQt6Quick3DUtils.so.6:_ZN22QQsbIODeviceCollectionC2ERK7QString@@Qt_6_PRIVATE_API
libQt6Quick3DUtils.so.6:_ZN22QQsbIODeviceCollectionD0Ev@@Qt_6_PRIVATE_API
libQt6Quick3DUtils.so.6:_ZN22QQsbIODeviceCollectionD1Ev@@Qt_6_PRIVATE_API
libQt6Quick3DUtils.so.6:_ZN22QQsbIODeviceCollectionD2Ev@@Qt_6_PRIVATE_API
libQt6Quick3DUtils.so.6:_ZN22QQsbInMemoryCollection12extractEntryEN14QQsbCollection5EntryERNS0_9EntryDescE@@Qt_6_PRIVATE_API
libQt6Quick3DUtils.so.6:_ZN22QQsbInMemoryCollection4loadERK7QString@@Qt_6_PRIVATE_API
libQt6Quick3DUtils.so.6:_ZN22QQsbInMemoryCollection4saveERK7QString@@Qt_6_PRIVATE_API
libQt6Quick3DUtils.so.6:_ZN22QQsbInMemoryCollection5clearEv@@Qt_6_PRIVATE_API
libQt6Quick3DUtils.so.6:_ZN22QQsbInMemoryCollection8addEntryERK10QByteArrayRKN14QQsbCollection9EntryDescE@@Qt_6_PRIVATE_API
libQt6Quick3DUtils.so.6:_ZN23QSSGLightmapUVGenerator3runERK10QByteArrayS2_S2_S2_23QSSGRenderComponentTypej@@Qt_6_PRIVATE_API
libQt6Quick3DUtils.so.6:_ZN8QSSGMesh12MeshInternal12readMeshDataEP9QIODeviceyPNS_4MeshEPNS0_14MeshDataHeaderE@@Qt_6_PRIVATE_API
libQt6Quick3DUtils.so.6:_ZN8QSSGMesh12MeshInternal13writeMeshDataEP9QIODeviceRKNS_4MeshE@@Qt_6_PRIVATE_API
libQt6Quick3DUtils.so.6:_ZN8QSSGMesh12MeshInternal14readFileHeaderEP9QIODevice@@Qt_6_PRIVATE_API
libQt6Quick3DUtils.so.6:_ZN8QSSGMesh12MeshInternal15writeFileHeaderEP9QIODeviceRKNS0_13MultiMeshInfoE@@Qt_6_PRIVATE_API
libQt6Quick3DUtils.so.6:_ZN8QSSGMesh12MeshInternal15writeMeshHeaderEP9QIODeviceRKNS0_14MeshDataHeaderE@@Qt_6_PRIVATE_API
libQt6Quick3DUtils.so.6:_ZN8QSSGMesh12MeshInternal21calculateSubsetBoundsERKNS_4Mesh17VertexBufferEntryERK10QByteArrayjS7_23QSSGRenderComponentTypejj@@Qt_6_PRIVATE_API
libQt6Quick3DUtils.so.6:_ZN8QSSGMesh12simplifyMeshEPjPKjmPKfmmmfjPf@@Qt_6
libQt6Quick3DUtils.so.6:_ZN8QSSGMesh13simplifyScaleEPKfmm@@Qt_6
libQt6Quick3DUtils.so.6:_ZN8QSSGMesh19optimizeVertexCacheEPjPKjmm@@Qt_6
libQt6Quick3DUtils.so.6:_ZN8QSSGMesh4Mesh13fromAssetDataERK5QListINS_16AssetVertexEntryEERK10QByteArray23QSSGRenderComponentTypeRKS1_INS_15AssetMeshSubsetEEjj@@Qt_6_PRIVATE_API
libQt6Quick3DUtils.so.6:_ZN8QSSGMesh4Mesh15fromRuntimeDataERKNS_15RuntimeMeshDataEP7QString@@Qt_6_PRIVATE_API
libQt6Quick3DUtils.so.6:_ZN8QSSGMesh4Mesh23createLightmapUVChannelEj@@Qt_6_PRIVATE_API
libQt6Quick3DUtils.so.6:_ZN8QSSGMesh4Mesh7loadAllEP9QIODevice@@Qt_6_PRIVATE_API
libQt6Quick3DUtils.so.6:_ZN8QSSGMesh4Mesh8loadMeshEP9QIODevicej@@Qt_6_PRIVATE_API
libQt6Quick3DUtils.so.6:_ZN9QSSGPlane9normalizeEv@@Qt_6_PRIVATE_API
libQt6Quick3DUtils.so.6:_ZN9QSSGUtils4quat14inverseRotatedERK11QQuaternionRK9QVector3D@@Qt_6
libQt6Quick3DUtils.so.6:_ZN9QSSGUtils4quat6isSaneERK11QQuaternion@@Qt_6
libQt6Quick3DUtils.so.6:_ZN9QSSGUtils4quat6isUnitERK11QQuaternion@@Qt_6
libQt6Quick3DUtils.so.6:_ZN9QSSGUtils4quat7rotatedERK11QQuaternionRK9QVector3D@@Qt_6
libQt6Quick3DUtils.so.6:_ZN9QSSGUtils4quat8isFiniteERK11QQuaternion@@Qt_6
libQt6Quick3DUtils.so.6:_ZN9QSSGUtils4quat9magnitudeERK11QQuaternion@@Qt_6
libQt6Quick3DUtils.so.6:_ZN9QSSGUtils4vec29magnitudeERK9QVector2D@@Qt_6
libQt6Quick3DUtils.so.6:_ZN9QSSGUtils4vec316magnitudeSquaredERK9QVector3D@@Qt_6
libQt6Quick3DUtils.so.6:_ZN9QSSGUtils4vec38isFiniteERK9QVector3D@@Qt_6
libQt6Quick3DUtils.so.6:_ZN9QSSGUtils4vec39magnitudeERK9QVector3D@@Qt_6
libQt6Quick3DUtils.so.6:_ZN9QSSGUtils4vec39normalizeER9QVector3D@@Qt_6
libQt6Quick3DUtils.so.6:_ZN9QSSGUtils5color12sRGBToLinearERK6QColor@@Qt_6
libQt6Quick3DUtils.so.6:_ZN9QSSGUtils5color17sRGBToLinearColorERK6QColor@@Qt_6
libQt6Quick3DUtils.so.6:_ZN9QSSGUtils5mat339transformERK14QGenericMatrixILi3ELi3EfERK9QVector3D@@Qt_6
libQt6Quick3DUtils.so.6:_ZN9QSSGUtils5mat4411getPositionERK10QMatrix4x4@@Qt_6
libQt6Quick3DUtils.so.6:_ZN9QSSGUtils5mat4411getUpper3x3ERK10QMatrix4x4@@Qt_6
libQt6Quick3DUtils.so.6:_ZN9QSSGUtils5mat446rotateERK10QMatrix4x4RK9QVector3D@@Qt_6
libQt6Quick3DUtils.so.6:_ZN9QSSGUtils5mat446rotateERK10QMatrix4x4RK9QVector4D@@Qt_6
libQt6Quick3DUtils.so.6:_ZN9QSSGUtils5mat448getScaleERK10QMatrix4x4@@Qt_6
libQt6Quick3DUtils.so.6:_ZN9QSSGUtils5mat449normalizeER10QMatrix4x4@@Qt_6
libQt6Quick3DUtils.so.6:_ZN9QSSGUtils5mat449transformERK10QMatrix4x4RK9QVector3D@@Qt_6
libQt6Quick3DUtils.so.6:_ZN9QSSGUtils5mat449transformERK10QMatrix4x4RK9QVector4D@@Qt_6
libQt6Quick3DUtils.so.6:_ZNK11QSSGBounds310getSupportERK9QVector3D@@Qt_6_PRIVATE_API
libQt6Quick3DUtils.so.6:_ZNK11QSSGBounds38isFiniteEv@@Qt_6_PRIVATE_API
libQt6Quick3DUtils.so.6:_ZNK14QQsbCollection9EntryDesc11generateShaEv@@Qt_6_PRIVATE_API
libQt6Quick3DUtils.so.6:_ZNK16QQuick3DProfiler10metaObjectEv@@Qt_6_PRIVATE_API
libQt6Quick3DUtils.so.6:_ZNK18QSSGMeshBVHBuilder23calculateTriangleBoundsEjj@@Qt_6_PRIVATE_API
libQt6Quick3DUtils.so.6:_ZNK22QQsbIODeviceCollection16availableEntriesEv@@Qt_6_PRIVATE_API
libQt6Quick3DUtils.so.6:_ZNK22QQsbInMemoryCollection16availableEntriesEv@@Qt_6_PRIVATE_API
libQt6Quick3DUtils.so.6:_ZNK23QSSGRenderTextureFormat13decodeToFloatEPviPf@@Qt_6_PRIVATE_API
libQt6Quick3DUtils.so.6:_ZNK23QSSGRenderTextureFormat13encodeToPixelEPfPvi@@Qt_6_PRIVATE_API
libQt6Quick3DUtils.so.6:_ZNK23QSSGRenderTextureFormat15getSizeofFormatEv@@Qt_6_PRIVATE_API
libQt6Quick3DUtils.so.6:_ZNK23QSSGRenderTextureFormat20getNumberOfComponentEv@@Qt_6_PRIVATE_API
libQt6Quick3DUtils.so.6:_ZNK23QSSGRenderTextureFormat8toStringEv@@Qt_6_PRIVATE_API
libQt6Quick3DUtils.so.6:_ZNK8QSSGMesh4Mesh20hasLightmapUVChannelEv@@Qt_6_PRIVATE_API
libQt6Quick3DUtils.so.6:_ZNK8QSSGMesh4Mesh4saveEP9QIODevicej@@Qt_6_PRIVATE_API
libQt6Quick3DUtils.so.6:_ZeqRKN14QQsbCollection5EntryES2_@@Qt_6_PRIVATE_API
libQt6Quick3DUtils.so.6:_ZlsR11QDataStreamRKN14QQsbCollection5EntryE@@Qt_6_PRIVATE_API
libQt6Quick3DUtils.so.6:_ZlsR11QDataStreamRKN14QQsbCollection9EntryDescE@@Qt_6_PRIVATE_API
libQt6Quick3DUtils.so.6:_ZrsR11QDataStreamRN14QQsbCollection5EntryE@@Qt_6_PRIVATE_API
libQt6Quick3DUtils.so.6:_ZrsR11QDataStreamRN14QQsbCollection9EntryDescE@@Qt_6_PRIVATE_API
